
FreeRTOS_VIA2.elf:     file format elf32-avr

Sections:
Idx Name          Size      VMA       LMA       File off  Algn
  0 .data         00000016  00800200  00002592  00002626  2**0
                  CONTENTS, ALLOC, LOAD, DATA
  1 .text         00002592  00000000  00000000  00000094  2**1
                  CONTENTS, ALLOC, LOAD, READONLY, CODE
  2 .bss          00000a33  00800216  00800216  0000263c  2**0
                  ALLOC
  3 .comment      00000030  00000000  00000000  0000263c  2**0
                  CONTENTS, READONLY
  4 .note.gnu.avr.deviceinfo 00000040  00000000  00000000  0000266c  2**2
                  CONTENTS, READONLY
  5 .debug_aranges 00000350  00000000  00000000  000026ac  2**0
                  CONTENTS, READONLY, DEBUGGING
  6 .debug_info   000025c2  00000000  00000000  000029fc  2**0
                  CONTENTS, READONLY, DEBUGGING
  7 .debug_abbrev 0000082d  00000000  00000000  00004fbe  2**0
                  CONTENTS, READONLY, DEBUGGING
  8 .debug_line   000026e9  00000000  00000000  000057eb  2**0
                  CONTENTS, READONLY, DEBUGGING
  9 .debug_frame  00000c58  00000000  00000000  00007ed4  2**2
                  CONTENTS, READONLY, DEBUGGING
 10 .debug_str    000011ac  00000000  00000000  00008b2c  2**0
                  CONTENTS, READONLY, DEBUGGING
 11 .debug_loc    000019d9  00000000  00000000  00009cd8  2**0
                  CONTENTS, READONLY, DEBUGGING
 12 .debug_ranges 000002f8  00000000  00000000  0000b6b1  2**0
                  CONTENTS, READONLY, DEBUGGING

Disassembly of section .text:

00000000 <__vectors>:
       0:	83 c0       	rjmp	.+262    	; 0x108 <__ctors_end>
       2:	00 00       	nop
       4:	a2 c0       	rjmp	.+324    	; 0x14a <__bad_interrupt>
       6:	00 00       	nop
       8:	a0 c0       	rjmp	.+320    	; 0x14a <__bad_interrupt>
       a:	00 00       	nop
       c:	9e c0       	rjmp	.+316    	; 0x14a <__bad_interrupt>
       e:	00 00       	nop
      10:	9c c0       	rjmp	.+312    	; 0x14a <__bad_interrupt>
      12:	00 00       	nop
      14:	9a c0       	rjmp	.+308    	; 0x14a <__bad_interrupt>
      16:	00 00       	nop
      18:	98 c0       	rjmp	.+304    	; 0x14a <__bad_interrupt>
      1a:	00 00       	nop
      1c:	96 c0       	rjmp	.+300    	; 0x14a <__bad_interrupt>
      1e:	00 00       	nop
      20:	94 c0       	rjmp	.+296    	; 0x14a <__bad_interrupt>
      22:	00 00       	nop
      24:	92 c0       	rjmp	.+292    	; 0x14a <__bad_interrupt>
      26:	00 00       	nop
      28:	90 c0       	rjmp	.+288    	; 0x14a <__bad_interrupt>
      2a:	00 00       	nop
      2c:	8e c0       	rjmp	.+284    	; 0x14a <__bad_interrupt>
      2e:	00 00       	nop
      30:	8c c0       	rjmp	.+280    	; 0x14a <__bad_interrupt>
      32:	00 00       	nop
      34:	8a c0       	rjmp	.+276    	; 0x14a <__bad_interrupt>
      36:	00 00       	nop
      38:	88 c0       	rjmp	.+272    	; 0x14a <__bad_interrupt>
      3a:	00 00       	nop
      3c:	86 c0       	rjmp	.+268    	; 0x14a <__bad_interrupt>
      3e:	00 00       	nop
      40:	84 c0       	rjmp	.+264    	; 0x14a <__bad_interrupt>
      42:	00 00       	nop
      44:	82 c0       	rjmp	.+260    	; 0x14a <__bad_interrupt>
      46:	00 00       	nop
      48:	80 c0       	rjmp	.+256    	; 0x14a <__bad_interrupt>
      4a:	00 00       	nop
      4c:	7e c0       	rjmp	.+252    	; 0x14a <__bad_interrupt>
      4e:	00 00       	nop
      50:	7c c0       	rjmp	.+248    	; 0x14a <__bad_interrupt>
      52:	00 00       	nop
      54:	7a c0       	rjmp	.+244    	; 0x14a <__bad_interrupt>
      56:	00 00       	nop
      58:	78 c0       	rjmp	.+240    	; 0x14a <__bad_interrupt>
      5a:	00 00       	nop
      5c:	76 c0       	rjmp	.+236    	; 0x14a <__bad_interrupt>
      5e:	00 00       	nop
      60:	74 c0       	rjmp	.+232    	; 0x14a <__bad_interrupt>
      62:	00 00       	nop
      64:	0c 94 fa 11 	jmp	0x23f4	; 0x23f4 <__vector_25>
      68:	0c 94 46 12 	jmp	0x248c	; 0x248c <__vector_26>
      6c:	6e c0       	rjmp	.+220    	; 0x14a <__bad_interrupt>
      6e:	00 00       	nop
      70:	6c c0       	rjmp	.+216    	; 0x14a <__bad_interrupt>
      72:	00 00       	nop
      74:	6a c0       	rjmp	.+212    	; 0x14a <__bad_interrupt>
      76:	00 00       	nop
      78:	68 c0       	rjmp	.+208    	; 0x14a <__bad_interrupt>
      7a:	00 00       	nop
      7c:	66 c0       	rjmp	.+204    	; 0x14a <__bad_interrupt>
      7e:	00 00       	nop
      80:	39 c5       	rjmp	.+2674   	; 0xaf4 <__vector_32>
      82:	00 00       	nop
      84:	62 c0       	rjmp	.+196    	; 0x14a <__bad_interrupt>
      86:	00 00       	nop
      88:	60 c0       	rjmp	.+192    	; 0x14a <__bad_interrupt>
      8a:	00 00       	nop
      8c:	5e c0       	rjmp	.+188    	; 0x14a <__bad_interrupt>
      8e:	00 00       	nop
      90:	5c c0       	rjmp	.+184    	; 0x14a <__bad_interrupt>
      92:	00 00       	nop
      94:	5a c0       	rjmp	.+180    	; 0x14a <__bad_interrupt>
      96:	00 00       	nop
      98:	58 c0       	rjmp	.+176    	; 0x14a <__bad_interrupt>
      9a:	00 00       	nop
      9c:	56 c0       	rjmp	.+172    	; 0x14a <__bad_interrupt>
      9e:	00 00       	nop
      a0:	54 c0       	rjmp	.+168    	; 0x14a <__bad_interrupt>
      a2:	00 00       	nop
      a4:	52 c0       	rjmp	.+164    	; 0x14a <__bad_interrupt>
      a6:	00 00       	nop
      a8:	50 c0       	rjmp	.+160    	; 0x14a <__bad_interrupt>
      aa:	00 00       	nop
      ac:	4e c0       	rjmp	.+156    	; 0x14a <__bad_interrupt>
      ae:	00 00       	nop
      b0:	4c c0       	rjmp	.+152    	; 0x14a <__bad_interrupt>
      b2:	00 00       	nop
      b4:	4a c0       	rjmp	.+148    	; 0x14a <__bad_interrupt>
      b6:	00 00       	nop
      b8:	48 c0       	rjmp	.+144    	; 0x14a <__bad_interrupt>
      ba:	00 00       	nop
      bc:	46 c0       	rjmp	.+140    	; 0x14a <__bad_interrupt>
      be:	00 00       	nop
      c0:	44 c0       	rjmp	.+136    	; 0x14a <__bad_interrupt>
      c2:	00 00       	nop
      c4:	42 c0       	rjmp	.+132    	; 0x14a <__bad_interrupt>
      c6:	00 00       	nop
      c8:	40 c0       	rjmp	.+128    	; 0x14a <__bad_interrupt>
      ca:	00 00       	nop
      cc:	3e c0       	rjmp	.+124    	; 0x14a <__bad_interrupt>
      ce:	00 00       	nop
      d0:	3c c0       	rjmp	.+120    	; 0x14a <__bad_interrupt>
      d2:	00 00       	nop
      d4:	3a c0       	rjmp	.+116    	; 0x14a <__bad_interrupt>
      d6:	00 00       	nop
      d8:	38 c0       	rjmp	.+112    	; 0x14a <__bad_interrupt>
      da:	00 00       	nop
      dc:	36 c0       	rjmp	.+108    	; 0x14a <__bad_interrupt>
      de:	00 00       	nop
      e0:	34 c0       	rjmp	.+104    	; 0x14a <__bad_interrupt>
	...

000000e4 <prvIdleTask>:
      e4:	cf 93       	push	r28
      e6:	df 93       	push	r29
      e8:	1f 92       	push	r1
      ea:	1f 92       	push	r1
      ec:	cd b7       	in	r28, 0x3d	; 61
      ee:	de b7       	in	r29, 0x3e	; 62
      f0:	9a 83       	std	Y+2, r25	; 0x02
      f2:	89 83       	std	Y+1, r24	; 0x01
      f4:	0e 94 e6 0f 	call	0x1fcc	; 0x1fcc <prvCheckTasksWaitingTermination>
      f8:	80 91 e4 0b 	lds	r24, 0x0BE4	; 0x800be4 <pxReadyTasksLists>
      fc:	82 30       	cpi	r24, 0x02	; 2
      fe:	08 f0       	brcs	.+2      	; 0x102 <prvIdleTask+0x1e>
     100:	85 d3       	rcall	.+1802   	; 0x80c <vPortYield>
     102:	0e 94 ac 11 	call	0x2358	; 0x2358 <vApplicationIdleHook>
     106:	f6 cf       	rjmp	.-20     	; 0xf4 <prvIdleTask+0x10>

00000108 <__ctors_end>:
     108:	11 24       	eor	r1, r1
     10a:	1f be       	out	0x3f, r1	; 63
     10c:	cf ef       	ldi	r28, 0xFF	; 255
     10e:	d1 e2       	ldi	r29, 0x21	; 33
     110:	de bf       	out	0x3e, r29	; 62
     112:	cd bf       	out	0x3d, r28	; 61
     114:	00 e0       	ldi	r16, 0x00	; 0
     116:	0c bf       	out	0x3c, r16	; 60

00000118 <__do_copy_data>:
     118:	12 e0       	ldi	r17, 0x02	; 2
     11a:	a0 e0       	ldi	r26, 0x00	; 0
     11c:	b2 e0       	ldi	r27, 0x02	; 2
     11e:	e2 e9       	ldi	r30, 0x92	; 146
     120:	f5 e2       	ldi	r31, 0x25	; 37
     122:	00 e0       	ldi	r16, 0x00	; 0
     124:	0b bf       	out	0x3b, r16	; 59
     126:	02 c0       	rjmp	.+4      	; 0x12c <__do_copy_data+0x14>
     128:	07 90       	elpm	r0, Z+
     12a:	0d 92       	st	X+, r0
     12c:	a6 31       	cpi	r26, 0x16	; 22
     12e:	b1 07       	cpc	r27, r17
     130:	d9 f7       	brne	.-10     	; 0x128 <__do_copy_data+0x10>

00000132 <__do_clear_bss>:
     132:	2c e0       	ldi	r18, 0x0C	; 12
     134:	a6 e1       	ldi	r26, 0x16	; 22
     136:	b2 e0       	ldi	r27, 0x02	; 2
     138:	01 c0       	rjmp	.+2      	; 0x13c <.do_clear_bss_start>

0000013a <.do_clear_bss_loop>:
     13a:	1d 92       	st	X+, r1

0000013c <.do_clear_bss_start>:
     13c:	a9 34       	cpi	r26, 0x49	; 73
     13e:	b2 07       	cpc	r27, r18
     140:	e1 f7       	brne	.-8      	; 0x13a <.do_clear_bss_loop>
     142:	0e 94 55 11 	call	0x22aa	; 0x22aa <main>
     146:	0c 94 c7 12 	jmp	0x258e	; 0x258e <_exit>

0000014a <__bad_interrupt>:
     14a:	0c 94 b3 11 	jmp	0x2366	; 0x2366 <__vector_default>

0000014e <vListInitialise>:
     14e:	cf 93       	push	r28
     150:	df 93       	push	r29
     152:	1f 92       	push	r1
     154:	1f 92       	push	r1
     156:	cd b7       	in	r28, 0x3d	; 61
     158:	de b7       	in	r29, 0x3e	; 62
     15a:	9a 83       	std	Y+2, r25	; 0x02
     15c:	89 83       	std	Y+1, r24	; 0x01
     15e:	89 81       	ldd	r24, Y+1	; 0x01
     160:	9a 81       	ldd	r25, Y+2	; 0x02
     162:	9c 01       	movw	r18, r24
     164:	2d 5f       	subi	r18, 0xFD	; 253
     166:	3f 4f       	sbci	r19, 0xFF	; 255
     168:	89 81       	ldd	r24, Y+1	; 0x01
     16a:	9a 81       	ldd	r25, Y+2	; 0x02
     16c:	fc 01       	movw	r30, r24
     16e:	32 83       	std	Z+2, r19	; 0x02
     170:	21 83       	std	Z+1, r18	; 0x01
     172:	89 81       	ldd	r24, Y+1	; 0x01
     174:	9a 81       	ldd	r25, Y+2	; 0x02
     176:	2f ef       	ldi	r18, 0xFF	; 255
     178:	3f ef       	ldi	r19, 0xFF	; 255
     17a:	fc 01       	movw	r30, r24
     17c:	34 83       	std	Z+4, r19	; 0x04
     17e:	23 83       	std	Z+3, r18	; 0x03
     180:	89 81       	ldd	r24, Y+1	; 0x01
     182:	9a 81       	ldd	r25, Y+2	; 0x02
     184:	9c 01       	movw	r18, r24
     186:	2d 5f       	subi	r18, 0xFD	; 253
     188:	3f 4f       	sbci	r19, 0xFF	; 255
     18a:	89 81       	ldd	r24, Y+1	; 0x01
     18c:	9a 81       	ldd	r25, Y+2	; 0x02
     18e:	fc 01       	movw	r30, r24
     190:	36 83       	std	Z+6, r19	; 0x06
     192:	25 83       	std	Z+5, r18	; 0x05
     194:	89 81       	ldd	r24, Y+1	; 0x01
     196:	9a 81       	ldd	r25, Y+2	; 0x02
     198:	9c 01       	movw	r18, r24
     19a:	2d 5f       	subi	r18, 0xFD	; 253
     19c:	3f 4f       	sbci	r19, 0xFF	; 255
     19e:	89 81       	ldd	r24, Y+1	; 0x01
     1a0:	9a 81       	ldd	r25, Y+2	; 0x02
     1a2:	fc 01       	movw	r30, r24
     1a4:	30 87       	std	Z+8, r19	; 0x08
     1a6:	27 83       	std	Z+7, r18	; 0x07
     1a8:	89 81       	ldd	r24, Y+1	; 0x01
     1aa:	9a 81       	ldd	r25, Y+2	; 0x02
     1ac:	fc 01       	movw	r30, r24
     1ae:	10 82       	st	Z, r1
     1b0:	0f 90       	pop	r0
     1b2:	0f 90       	pop	r0
     1b4:	df 91       	pop	r29
     1b6:	cf 91       	pop	r28
     1b8:	08 95       	ret

000001ba <vListInitialiseItem>:
     1ba:	cf 93       	push	r28
     1bc:	df 93       	push	r29
     1be:	1f 92       	push	r1
     1c0:	1f 92       	push	r1
     1c2:	cd b7       	in	r28, 0x3d	; 61
     1c4:	de b7       	in	r29, 0x3e	; 62
     1c6:	9a 83       	std	Y+2, r25	; 0x02
     1c8:	89 83       	std	Y+1, r24	; 0x01
     1ca:	89 81       	ldd	r24, Y+1	; 0x01
     1cc:	9a 81       	ldd	r25, Y+2	; 0x02
     1ce:	fc 01       	movw	r30, r24
     1d0:	11 86       	std	Z+9, r1	; 0x09
     1d2:	10 86       	std	Z+8, r1	; 0x08
     1d4:	0f 90       	pop	r0
     1d6:	0f 90       	pop	r0
     1d8:	df 91       	pop	r29
     1da:	cf 91       	pop	r28
     1dc:	08 95       	ret

000001de <vListInsertEnd>:
     1de:	cf 93       	push	r28
     1e0:	df 93       	push	r29
     1e2:	00 d0       	rcall	.+0      	; 0x1e4 <vListInsertEnd+0x6>
     1e4:	00 d0       	rcall	.+0      	; 0x1e6 <vListInsertEnd+0x8>
     1e6:	cd b7       	in	r28, 0x3d	; 61
     1e8:	de b7       	in	r29, 0x3e	; 62
     1ea:	9c 83       	std	Y+4, r25	; 0x04
     1ec:	8b 83       	std	Y+3, r24	; 0x03
     1ee:	7e 83       	std	Y+6, r23	; 0x06
     1f0:	6d 83       	std	Y+5, r22	; 0x05
     1f2:	8b 81       	ldd	r24, Y+3	; 0x03
     1f4:	9c 81       	ldd	r25, Y+4	; 0x04
     1f6:	fc 01       	movw	r30, r24
     1f8:	81 81       	ldd	r24, Z+1	; 0x01
     1fa:	92 81       	ldd	r25, Z+2	; 0x02
     1fc:	9a 83       	std	Y+2, r25	; 0x02
     1fe:	89 83       	std	Y+1, r24	; 0x01
     200:	8d 81       	ldd	r24, Y+5	; 0x05
     202:	9e 81       	ldd	r25, Y+6	; 0x06
     204:	29 81       	ldd	r18, Y+1	; 0x01
     206:	3a 81       	ldd	r19, Y+2	; 0x02
     208:	fc 01       	movw	r30, r24
     20a:	33 83       	std	Z+3, r19	; 0x03
     20c:	22 83       	std	Z+2, r18	; 0x02
     20e:	89 81       	ldd	r24, Y+1	; 0x01
     210:	9a 81       	ldd	r25, Y+2	; 0x02
     212:	fc 01       	movw	r30, r24
     214:	24 81       	ldd	r18, Z+4	; 0x04
     216:	35 81       	ldd	r19, Z+5	; 0x05
     218:	8d 81       	ldd	r24, Y+5	; 0x05
     21a:	9e 81       	ldd	r25, Y+6	; 0x06
     21c:	fc 01       	movw	r30, r24
     21e:	35 83       	std	Z+5, r19	; 0x05
     220:	24 83       	std	Z+4, r18	; 0x04
     222:	89 81       	ldd	r24, Y+1	; 0x01
     224:	9a 81       	ldd	r25, Y+2	; 0x02
     226:	fc 01       	movw	r30, r24
     228:	84 81       	ldd	r24, Z+4	; 0x04
     22a:	95 81       	ldd	r25, Z+5	; 0x05
     22c:	2d 81       	ldd	r18, Y+5	; 0x05
     22e:	3e 81       	ldd	r19, Y+6	; 0x06
     230:	fc 01       	movw	r30, r24
     232:	33 83       	std	Z+3, r19	; 0x03
     234:	22 83       	std	Z+2, r18	; 0x02
     236:	89 81       	ldd	r24, Y+1	; 0x01
     238:	9a 81       	ldd	r25, Y+2	; 0x02
     23a:	2d 81       	ldd	r18, Y+5	; 0x05
     23c:	3e 81       	ldd	r19, Y+6	; 0x06
     23e:	fc 01       	movw	r30, r24
     240:	35 83       	std	Z+5, r19	; 0x05
     242:	24 83       	std	Z+4, r18	; 0x04
     244:	8d 81       	ldd	r24, Y+5	; 0x05
     246:	9e 81       	ldd	r25, Y+6	; 0x06
     248:	2b 81       	ldd	r18, Y+3	; 0x03
     24a:	3c 81       	ldd	r19, Y+4	; 0x04
     24c:	fc 01       	movw	r30, r24
     24e:	31 87       	std	Z+9, r19	; 0x09
     250:	20 87       	std	Z+8, r18	; 0x08
     252:	8b 81       	ldd	r24, Y+3	; 0x03
     254:	9c 81       	ldd	r25, Y+4	; 0x04
     256:	fc 01       	movw	r30, r24
     258:	80 81       	ld	r24, Z
     25a:	21 e0       	ldi	r18, 0x01	; 1
     25c:	28 0f       	add	r18, r24
     25e:	8b 81       	ldd	r24, Y+3	; 0x03
     260:	9c 81       	ldd	r25, Y+4	; 0x04
     262:	fc 01       	movw	r30, r24
     264:	20 83       	st	Z, r18
     266:	26 96       	adiw	r28, 0x06	; 6
     268:	0f b6       	in	r0, 0x3f	; 63
     26a:	f8 94       	cli
     26c:	de bf       	out	0x3e, r29	; 62
     26e:	0f be       	out	0x3f, r0	; 63
     270:	cd bf       	out	0x3d, r28	; 61
     272:	df 91       	pop	r29
     274:	cf 91       	pop	r28
     276:	08 95       	ret

00000278 <vListInsert>:
     278:	cf 93       	push	r28
     27a:	df 93       	push	r29
     27c:	cd b7       	in	r28, 0x3d	; 61
     27e:	de b7       	in	r29, 0x3e	; 62
     280:	28 97       	sbiw	r28, 0x08	; 8
     282:	0f b6       	in	r0, 0x3f	; 63
     284:	f8 94       	cli
     286:	de bf       	out	0x3e, r29	; 62
     288:	0f be       	out	0x3f, r0	; 63
     28a:	cd bf       	out	0x3d, r28	; 61
     28c:	9e 83       	std	Y+6, r25	; 0x06
     28e:	8d 83       	std	Y+5, r24	; 0x05
     290:	78 87       	std	Y+8, r23	; 0x08
     292:	6f 83       	std	Y+7, r22	; 0x07
     294:	8f 81       	ldd	r24, Y+7	; 0x07
     296:	98 85       	ldd	r25, Y+8	; 0x08
     298:	fc 01       	movw	r30, r24
     29a:	80 81       	ld	r24, Z
     29c:	91 81       	ldd	r25, Z+1	; 0x01
     29e:	9c 83       	std	Y+4, r25	; 0x04
     2a0:	8b 83       	std	Y+3, r24	; 0x03
     2a2:	8b 81       	ldd	r24, Y+3	; 0x03
     2a4:	9c 81       	ldd	r25, Y+4	; 0x04
     2a6:	01 96       	adiw	r24, 0x01	; 1
     2a8:	41 f4       	brne	.+16     	; 0x2ba <vListInsert+0x42>
     2aa:	8d 81       	ldd	r24, Y+5	; 0x05
     2ac:	9e 81       	ldd	r25, Y+6	; 0x06
     2ae:	fc 01       	movw	r30, r24
     2b0:	87 81       	ldd	r24, Z+7	; 0x07
     2b2:	90 85       	ldd	r25, Z+8	; 0x08
     2b4:	9a 83       	std	Y+2, r25	; 0x02
     2b6:	89 83       	std	Y+1, r24	; 0x01
     2b8:	1a c0       	rjmp	.+52     	; 0x2ee <vListInsert+0x76>
     2ba:	8d 81       	ldd	r24, Y+5	; 0x05
     2bc:	9e 81       	ldd	r25, Y+6	; 0x06
     2be:	03 96       	adiw	r24, 0x03	; 3
     2c0:	9a 83       	std	Y+2, r25	; 0x02
     2c2:	89 83       	std	Y+1, r24	; 0x01
     2c4:	07 c0       	rjmp	.+14     	; 0x2d4 <vListInsert+0x5c>
     2c6:	89 81       	ldd	r24, Y+1	; 0x01
     2c8:	9a 81       	ldd	r25, Y+2	; 0x02
     2ca:	fc 01       	movw	r30, r24
     2cc:	82 81       	ldd	r24, Z+2	; 0x02
     2ce:	93 81       	ldd	r25, Z+3	; 0x03
     2d0:	9a 83       	std	Y+2, r25	; 0x02
     2d2:	89 83       	std	Y+1, r24	; 0x01
     2d4:	89 81       	ldd	r24, Y+1	; 0x01
     2d6:	9a 81       	ldd	r25, Y+2	; 0x02
     2d8:	fc 01       	movw	r30, r24
     2da:	82 81       	ldd	r24, Z+2	; 0x02
     2dc:	93 81       	ldd	r25, Z+3	; 0x03
     2de:	fc 01       	movw	r30, r24
     2e0:	20 81       	ld	r18, Z
     2e2:	31 81       	ldd	r19, Z+1	; 0x01
     2e4:	8b 81       	ldd	r24, Y+3	; 0x03
     2e6:	9c 81       	ldd	r25, Y+4	; 0x04
     2e8:	82 17       	cp	r24, r18
     2ea:	93 07       	cpc	r25, r19
     2ec:	60 f7       	brcc	.-40     	; 0x2c6 <vListInsert+0x4e>
     2ee:	89 81       	ldd	r24, Y+1	; 0x01
     2f0:	9a 81       	ldd	r25, Y+2	; 0x02
     2f2:	fc 01       	movw	r30, r24
     2f4:	22 81       	ldd	r18, Z+2	; 0x02
     2f6:	33 81       	ldd	r19, Z+3	; 0x03
     2f8:	8f 81       	ldd	r24, Y+7	; 0x07
     2fa:	98 85       	ldd	r25, Y+8	; 0x08
     2fc:	fc 01       	movw	r30, r24
     2fe:	33 83       	std	Z+3, r19	; 0x03
     300:	22 83       	std	Z+2, r18	; 0x02
     302:	8f 81       	ldd	r24, Y+7	; 0x07
     304:	98 85       	ldd	r25, Y+8	; 0x08
     306:	fc 01       	movw	r30, r24
     308:	82 81       	ldd	r24, Z+2	; 0x02
     30a:	93 81       	ldd	r25, Z+3	; 0x03
     30c:	2f 81       	ldd	r18, Y+7	; 0x07
     30e:	38 85       	ldd	r19, Y+8	; 0x08
     310:	fc 01       	movw	r30, r24
     312:	35 83       	std	Z+5, r19	; 0x05
     314:	24 83       	std	Z+4, r18	; 0x04
     316:	8f 81       	ldd	r24, Y+7	; 0x07
     318:	98 85       	ldd	r25, Y+8	; 0x08
     31a:	29 81       	ldd	r18, Y+1	; 0x01
     31c:	3a 81       	ldd	r19, Y+2	; 0x02
     31e:	fc 01       	movw	r30, r24
     320:	35 83       	std	Z+5, r19	; 0x05
     322:	24 83       	std	Z+4, r18	; 0x04
     324:	89 81       	ldd	r24, Y+1	; 0x01
     326:	9a 81       	ldd	r25, Y+2	; 0x02
     328:	2f 81       	ldd	r18, Y+7	; 0x07
     32a:	38 85       	ldd	r19, Y+8	; 0x08
     32c:	fc 01       	movw	r30, r24
     32e:	33 83       	std	Z+3, r19	; 0x03
     330:	22 83       	std	Z+2, r18	; 0x02
     332:	8f 81       	ldd	r24, Y+7	; 0x07
     334:	98 85       	ldd	r25, Y+8	; 0x08
     336:	2d 81       	ldd	r18, Y+5	; 0x05
     338:	3e 81       	ldd	r19, Y+6	; 0x06
     33a:	fc 01       	movw	r30, r24
     33c:	31 87       	std	Z+9, r19	; 0x09
     33e:	20 87       	std	Z+8, r18	; 0x08
     340:	8d 81       	ldd	r24, Y+5	; 0x05
     342:	9e 81       	ldd	r25, Y+6	; 0x06
     344:	fc 01       	movw	r30, r24
     346:	80 81       	ld	r24, Z
     348:	21 e0       	ldi	r18, 0x01	; 1
     34a:	28 0f       	add	r18, r24
     34c:	8d 81       	ldd	r24, Y+5	; 0x05
     34e:	9e 81       	ldd	r25, Y+6	; 0x06
     350:	fc 01       	movw	r30, r24
     352:	20 83       	st	Z, r18
     354:	28 96       	adiw	r28, 0x08	; 8
     356:	0f b6       	in	r0, 0x3f	; 63
     358:	f8 94       	cli
     35a:	de bf       	out	0x3e, r29	; 62
     35c:	0f be       	out	0x3f, r0	; 63
     35e:	cd bf       	out	0x3d, r28	; 61
     360:	df 91       	pop	r29
     362:	cf 91       	pop	r28
     364:	08 95       	ret

00000366 <uxListRemove>:
     366:	cf 93       	push	r28
     368:	df 93       	push	r29
     36a:	00 d0       	rcall	.+0      	; 0x36c <uxListRemove+0x6>
     36c:	1f 92       	push	r1
     36e:	cd b7       	in	r28, 0x3d	; 61
     370:	de b7       	in	r29, 0x3e	; 62
     372:	9c 83       	std	Y+4, r25	; 0x04
     374:	8b 83       	std	Y+3, r24	; 0x03
     376:	8b 81       	ldd	r24, Y+3	; 0x03
     378:	9c 81       	ldd	r25, Y+4	; 0x04
     37a:	fc 01       	movw	r30, r24
     37c:	80 85       	ldd	r24, Z+8	; 0x08
     37e:	91 85       	ldd	r25, Z+9	; 0x09
     380:	9a 83       	std	Y+2, r25	; 0x02
     382:	89 83       	std	Y+1, r24	; 0x01
     384:	8b 81       	ldd	r24, Y+3	; 0x03
     386:	9c 81       	ldd	r25, Y+4	; 0x04
     388:	fc 01       	movw	r30, r24
     38a:	82 81       	ldd	r24, Z+2	; 0x02
     38c:	93 81       	ldd	r25, Z+3	; 0x03
     38e:	2b 81       	ldd	r18, Y+3	; 0x03
     390:	3c 81       	ldd	r19, Y+4	; 0x04
     392:	f9 01       	movw	r30, r18
     394:	24 81       	ldd	r18, Z+4	; 0x04
     396:	35 81       	ldd	r19, Z+5	; 0x05
     398:	fc 01       	movw	r30, r24
     39a:	35 83       	std	Z+5, r19	; 0x05
     39c:	24 83       	std	Z+4, r18	; 0x04
     39e:	8b 81       	ldd	r24, Y+3	; 0x03
     3a0:	9c 81       	ldd	r25, Y+4	; 0x04
     3a2:	fc 01       	movw	r30, r24
     3a4:	84 81       	ldd	r24, Z+4	; 0x04
     3a6:	95 81       	ldd	r25, Z+5	; 0x05
     3a8:	2b 81       	ldd	r18, Y+3	; 0x03
     3aa:	3c 81       	ldd	r19, Y+4	; 0x04
     3ac:	f9 01       	movw	r30, r18
     3ae:	22 81       	ldd	r18, Z+2	; 0x02
     3b0:	33 81       	ldd	r19, Z+3	; 0x03
     3b2:	fc 01       	movw	r30, r24
     3b4:	33 83       	std	Z+3, r19	; 0x03
     3b6:	22 83       	std	Z+2, r18	; 0x02
     3b8:	89 81       	ldd	r24, Y+1	; 0x01
     3ba:	9a 81       	ldd	r25, Y+2	; 0x02
     3bc:	fc 01       	movw	r30, r24
     3be:	21 81       	ldd	r18, Z+1	; 0x01
     3c0:	32 81       	ldd	r19, Z+2	; 0x02
     3c2:	8b 81       	ldd	r24, Y+3	; 0x03
     3c4:	9c 81       	ldd	r25, Y+4	; 0x04
     3c6:	28 17       	cp	r18, r24
     3c8:	39 07       	cpc	r19, r25
     3ca:	51 f4       	brne	.+20     	; 0x3e0 <uxListRemove+0x7a>
     3cc:	8b 81       	ldd	r24, Y+3	; 0x03
     3ce:	9c 81       	ldd	r25, Y+4	; 0x04
     3d0:	fc 01       	movw	r30, r24
     3d2:	24 81       	ldd	r18, Z+4	; 0x04
     3d4:	35 81       	ldd	r19, Z+5	; 0x05
     3d6:	89 81       	ldd	r24, Y+1	; 0x01
     3d8:	9a 81       	ldd	r25, Y+2	; 0x02
     3da:	fc 01       	movw	r30, r24
     3dc:	32 83       	std	Z+2, r19	; 0x02
     3de:	21 83       	std	Z+1, r18	; 0x01
     3e0:	8b 81       	ldd	r24, Y+3	; 0x03
     3e2:	9c 81       	ldd	r25, Y+4	; 0x04
     3e4:	fc 01       	movw	r30, r24
     3e6:	11 86       	std	Z+9, r1	; 0x09
     3e8:	10 86       	std	Z+8, r1	; 0x08
     3ea:	89 81       	ldd	r24, Y+1	; 0x01
     3ec:	9a 81       	ldd	r25, Y+2	; 0x02
     3ee:	fc 01       	movw	r30, r24
     3f0:	80 81       	ld	r24, Z
     3f2:	2f ef       	ldi	r18, 0xFF	; 255
     3f4:	28 0f       	add	r18, r24
     3f6:	89 81       	ldd	r24, Y+1	; 0x01
     3f8:	9a 81       	ldd	r25, Y+2	; 0x02
     3fa:	fc 01       	movw	r30, r24
     3fc:	20 83       	st	Z, r18
     3fe:	89 81       	ldd	r24, Y+1	; 0x01
     400:	9a 81       	ldd	r25, Y+2	; 0x02
     402:	fc 01       	movw	r30, r24
     404:	80 81       	ld	r24, Z
     406:	0f 90       	pop	r0
     408:	0f 90       	pop	r0
     40a:	0f 90       	pop	r0
     40c:	0f 90       	pop	r0
     40e:	df 91       	pop	r29
     410:	cf 91       	pop	r28
     412:	08 95       	ret

00000414 <pxPortInitialiseStack>:
     414:	cf 93       	push	r28
     416:	df 93       	push	r29
     418:	cd b7       	in	r28, 0x3d	; 61
     41a:	de b7       	in	r29, 0x3e	; 62
     41c:	28 97       	sbiw	r28, 0x08	; 8
     41e:	0f b6       	in	r0, 0x3f	; 63
     420:	f8 94       	cli
     422:	de bf       	out	0x3e, r29	; 62
     424:	0f be       	out	0x3f, r0	; 63
     426:	cd bf       	out	0x3d, r28	; 61
     428:	9c 83       	std	Y+4, r25	; 0x04
     42a:	8b 83       	std	Y+3, r24	; 0x03
     42c:	7e 83       	std	Y+6, r23	; 0x06
     42e:	6d 83       	std	Y+5, r22	; 0x05
     430:	58 87       	std	Y+8, r21	; 0x08
     432:	4f 83       	std	Y+7, r20	; 0x07
     434:	8b 81       	ldd	r24, Y+3	; 0x03
     436:	9c 81       	ldd	r25, Y+4	; 0x04
     438:	21 e1       	ldi	r18, 0x11	; 17
     43a:	fc 01       	movw	r30, r24
     43c:	20 83       	st	Z, r18
     43e:	8b 81       	ldd	r24, Y+3	; 0x03
     440:	9c 81       	ldd	r25, Y+4	; 0x04
     442:	01 97       	sbiw	r24, 0x01	; 1
     444:	9c 83       	std	Y+4, r25	; 0x04
     446:	8b 83       	std	Y+3, r24	; 0x03
     448:	8b 81       	ldd	r24, Y+3	; 0x03
     44a:	9c 81       	ldd	r25, Y+4	; 0x04
     44c:	22 e2       	ldi	r18, 0x22	; 34
     44e:	fc 01       	movw	r30, r24
     450:	20 83       	st	Z, r18
     452:	8b 81       	ldd	r24, Y+3	; 0x03
     454:	9c 81       	ldd	r25, Y+4	; 0x04
     456:	01 97       	sbiw	r24, 0x01	; 1
     458:	9c 83       	std	Y+4, r25	; 0x04
     45a:	8b 83       	std	Y+3, r24	; 0x03
     45c:	8b 81       	ldd	r24, Y+3	; 0x03
     45e:	9c 81       	ldd	r25, Y+4	; 0x04
     460:	23 e3       	ldi	r18, 0x33	; 51
     462:	fc 01       	movw	r30, r24
     464:	20 83       	st	Z, r18
     466:	8b 81       	ldd	r24, Y+3	; 0x03
     468:	9c 81       	ldd	r25, Y+4	; 0x04
     46a:	01 97       	sbiw	r24, 0x01	; 1
     46c:	9c 83       	std	Y+4, r25	; 0x04
     46e:	8b 83       	std	Y+3, r24	; 0x03
     470:	8d 81       	ldd	r24, Y+5	; 0x05
     472:	9e 81       	ldd	r25, Y+6	; 0x06
     474:	9a 83       	std	Y+2, r25	; 0x02
     476:	89 83       	std	Y+1, r24	; 0x01
     478:	29 81       	ldd	r18, Y+1	; 0x01
     47a:	8b 81       	ldd	r24, Y+3	; 0x03
     47c:	9c 81       	ldd	r25, Y+4	; 0x04
     47e:	fc 01       	movw	r30, r24
     480:	20 83       	st	Z, r18
     482:	8b 81       	ldd	r24, Y+3	; 0x03
     484:	9c 81       	ldd	r25, Y+4	; 0x04
     486:	01 97       	sbiw	r24, 0x01	; 1
     488:	9c 83       	std	Y+4, r25	; 0x04
     48a:	8b 83       	std	Y+3, r24	; 0x03
     48c:	89 81       	ldd	r24, Y+1	; 0x01
     48e:	9a 81       	ldd	r25, Y+2	; 0x02
     490:	89 2f       	mov	r24, r25
     492:	99 27       	eor	r25, r25
     494:	9a 83       	std	Y+2, r25	; 0x02
     496:	89 83       	std	Y+1, r24	; 0x01
     498:	29 81       	ldd	r18, Y+1	; 0x01
     49a:	8b 81       	ldd	r24, Y+3	; 0x03
     49c:	9c 81       	ldd	r25, Y+4	; 0x04
     49e:	fc 01       	movw	r30, r24
     4a0:	20 83       	st	Z, r18
     4a2:	8b 81       	ldd	r24, Y+3	; 0x03
     4a4:	9c 81       	ldd	r25, Y+4	; 0x04
     4a6:	01 97       	sbiw	r24, 0x01	; 1
     4a8:	9c 83       	std	Y+4, r25	; 0x04
     4aa:	8b 83       	std	Y+3, r24	; 0x03
     4ac:	8b 81       	ldd	r24, Y+3	; 0x03
     4ae:	9c 81       	ldd	r25, Y+4	; 0x04
     4b0:	fc 01       	movw	r30, r24
     4b2:	10 82       	st	Z, r1
     4b4:	8b 81       	ldd	r24, Y+3	; 0x03
     4b6:	9c 81       	ldd	r25, Y+4	; 0x04
     4b8:	01 97       	sbiw	r24, 0x01	; 1
     4ba:	9c 83       	std	Y+4, r25	; 0x04
     4bc:	8b 83       	std	Y+3, r24	; 0x03
     4be:	8b 81       	ldd	r24, Y+3	; 0x03
     4c0:	9c 81       	ldd	r25, Y+4	; 0x04
     4c2:	fc 01       	movw	r30, r24
     4c4:	10 82       	st	Z, r1
     4c6:	8b 81       	ldd	r24, Y+3	; 0x03
     4c8:	9c 81       	ldd	r25, Y+4	; 0x04
     4ca:	01 97       	sbiw	r24, 0x01	; 1
     4cc:	9c 83       	std	Y+4, r25	; 0x04
     4ce:	8b 83       	std	Y+3, r24	; 0x03
     4d0:	8b 81       	ldd	r24, Y+3	; 0x03
     4d2:	9c 81       	ldd	r25, Y+4	; 0x04
     4d4:	20 e8       	ldi	r18, 0x80	; 128
     4d6:	fc 01       	movw	r30, r24
     4d8:	20 83       	st	Z, r18
     4da:	8b 81       	ldd	r24, Y+3	; 0x03
     4dc:	9c 81       	ldd	r25, Y+4	; 0x04
     4de:	01 97       	sbiw	r24, 0x01	; 1
     4e0:	9c 83       	std	Y+4, r25	; 0x04
     4e2:	8b 83       	std	Y+3, r24	; 0x03
     4e4:	8b 81       	ldd	r24, Y+3	; 0x03
     4e6:	9c 81       	ldd	r25, Y+4	; 0x04
     4e8:	fc 01       	movw	r30, r24
     4ea:	10 82       	st	Z, r1
     4ec:	8b 81       	ldd	r24, Y+3	; 0x03
     4ee:	9c 81       	ldd	r25, Y+4	; 0x04
     4f0:	01 97       	sbiw	r24, 0x01	; 1
     4f2:	9c 83       	std	Y+4, r25	; 0x04
     4f4:	8b 83       	std	Y+3, r24	; 0x03
     4f6:	8b 81       	ldd	r24, Y+3	; 0x03
     4f8:	9c 81       	ldd	r25, Y+4	; 0x04
     4fa:	fc 01       	movw	r30, r24
     4fc:	10 82       	st	Z, r1
     4fe:	8b 81       	ldd	r24, Y+3	; 0x03
     500:	9c 81       	ldd	r25, Y+4	; 0x04
     502:	01 97       	sbiw	r24, 0x01	; 1
     504:	9c 83       	std	Y+4, r25	; 0x04
     506:	8b 83       	std	Y+3, r24	; 0x03
     508:	8b 81       	ldd	r24, Y+3	; 0x03
     50a:	9c 81       	ldd	r25, Y+4	; 0x04
     50c:	fc 01       	movw	r30, r24
     50e:	10 82       	st	Z, r1
     510:	8b 81       	ldd	r24, Y+3	; 0x03
     512:	9c 81       	ldd	r25, Y+4	; 0x04
     514:	01 97       	sbiw	r24, 0x01	; 1
     516:	9c 83       	std	Y+4, r25	; 0x04
     518:	8b 83       	std	Y+3, r24	; 0x03
     51a:	8b 81       	ldd	r24, Y+3	; 0x03
     51c:	9c 81       	ldd	r25, Y+4	; 0x04
     51e:	22 e0       	ldi	r18, 0x02	; 2
     520:	fc 01       	movw	r30, r24
     522:	20 83       	st	Z, r18
     524:	8b 81       	ldd	r24, Y+3	; 0x03
     526:	9c 81       	ldd	r25, Y+4	; 0x04
     528:	01 97       	sbiw	r24, 0x01	; 1
     52a:	9c 83       	std	Y+4, r25	; 0x04
     52c:	8b 83       	std	Y+3, r24	; 0x03
     52e:	8b 81       	ldd	r24, Y+3	; 0x03
     530:	9c 81       	ldd	r25, Y+4	; 0x04
     532:	23 e0       	ldi	r18, 0x03	; 3
     534:	fc 01       	movw	r30, r24
     536:	20 83       	st	Z, r18
     538:	8b 81       	ldd	r24, Y+3	; 0x03
     53a:	9c 81       	ldd	r25, Y+4	; 0x04
     53c:	01 97       	sbiw	r24, 0x01	; 1
     53e:	9c 83       	std	Y+4, r25	; 0x04
     540:	8b 83       	std	Y+3, r24	; 0x03
     542:	8b 81       	ldd	r24, Y+3	; 0x03
     544:	9c 81       	ldd	r25, Y+4	; 0x04
     546:	24 e0       	ldi	r18, 0x04	; 4
     548:	fc 01       	movw	r30, r24
     54a:	20 83       	st	Z, r18
     54c:	8b 81       	ldd	r24, Y+3	; 0x03
     54e:	9c 81       	ldd	r25, Y+4	; 0x04
     550:	01 97       	sbiw	r24, 0x01	; 1
     552:	9c 83       	std	Y+4, r25	; 0x04
     554:	8b 83       	std	Y+3, r24	; 0x03
     556:	8b 81       	ldd	r24, Y+3	; 0x03
     558:	9c 81       	ldd	r25, Y+4	; 0x04
     55a:	25 e0       	ldi	r18, 0x05	; 5
     55c:	fc 01       	movw	r30, r24
     55e:	20 83       	st	Z, r18
     560:	8b 81       	ldd	r24, Y+3	; 0x03
     562:	9c 81       	ldd	r25, Y+4	; 0x04
     564:	01 97       	sbiw	r24, 0x01	; 1
     566:	9c 83       	std	Y+4, r25	; 0x04
     568:	8b 83       	std	Y+3, r24	; 0x03
     56a:	8b 81       	ldd	r24, Y+3	; 0x03
     56c:	9c 81       	ldd	r25, Y+4	; 0x04
     56e:	26 e0       	ldi	r18, 0x06	; 6
     570:	fc 01       	movw	r30, r24
     572:	20 83       	st	Z, r18
     574:	8b 81       	ldd	r24, Y+3	; 0x03
     576:	9c 81       	ldd	r25, Y+4	; 0x04
     578:	01 97       	sbiw	r24, 0x01	; 1
     57a:	9c 83       	std	Y+4, r25	; 0x04
     57c:	8b 83       	std	Y+3, r24	; 0x03
     57e:	8b 81       	ldd	r24, Y+3	; 0x03
     580:	9c 81       	ldd	r25, Y+4	; 0x04
     582:	27 e0       	ldi	r18, 0x07	; 7
     584:	fc 01       	movw	r30, r24
     586:	20 83       	st	Z, r18
     588:	8b 81       	ldd	r24, Y+3	; 0x03
     58a:	9c 81       	ldd	r25, Y+4	; 0x04
     58c:	01 97       	sbiw	r24, 0x01	; 1
     58e:	9c 83       	std	Y+4, r25	; 0x04
     590:	8b 83       	std	Y+3, r24	; 0x03
     592:	8b 81       	ldd	r24, Y+3	; 0x03
     594:	9c 81       	ldd	r25, Y+4	; 0x04
     596:	28 e0       	ldi	r18, 0x08	; 8
     598:	fc 01       	movw	r30, r24
     59a:	20 83       	st	Z, r18
     59c:	8b 81       	ldd	r24, Y+3	; 0x03
     59e:	9c 81       	ldd	r25, Y+4	; 0x04
     5a0:	01 97       	sbiw	r24, 0x01	; 1
     5a2:	9c 83       	std	Y+4, r25	; 0x04
     5a4:	8b 83       	std	Y+3, r24	; 0x03
     5a6:	8b 81       	ldd	r24, Y+3	; 0x03
     5a8:	9c 81       	ldd	r25, Y+4	; 0x04
     5aa:	29 e0       	ldi	r18, 0x09	; 9
     5ac:	fc 01       	movw	r30, r24
     5ae:	20 83       	st	Z, r18
     5b0:	8b 81       	ldd	r24, Y+3	; 0x03
     5b2:	9c 81       	ldd	r25, Y+4	; 0x04
     5b4:	01 97       	sbiw	r24, 0x01	; 1
     5b6:	9c 83       	std	Y+4, r25	; 0x04
     5b8:	8b 83       	std	Y+3, r24	; 0x03
     5ba:	8b 81       	ldd	r24, Y+3	; 0x03
     5bc:	9c 81       	ldd	r25, Y+4	; 0x04
     5be:	20 e1       	ldi	r18, 0x10	; 16
     5c0:	fc 01       	movw	r30, r24
     5c2:	20 83       	st	Z, r18
     5c4:	8b 81       	ldd	r24, Y+3	; 0x03
     5c6:	9c 81       	ldd	r25, Y+4	; 0x04
     5c8:	01 97       	sbiw	r24, 0x01	; 1
     5ca:	9c 83       	std	Y+4, r25	; 0x04
     5cc:	8b 83       	std	Y+3, r24	; 0x03
     5ce:	8b 81       	ldd	r24, Y+3	; 0x03
     5d0:	9c 81       	ldd	r25, Y+4	; 0x04
     5d2:	21 e1       	ldi	r18, 0x11	; 17
     5d4:	fc 01       	movw	r30, r24
     5d6:	20 83       	st	Z, r18
     5d8:	8b 81       	ldd	r24, Y+3	; 0x03
     5da:	9c 81       	ldd	r25, Y+4	; 0x04
     5dc:	01 97       	sbiw	r24, 0x01	; 1
     5de:	9c 83       	std	Y+4, r25	; 0x04
     5e0:	8b 83       	std	Y+3, r24	; 0x03
     5e2:	8b 81       	ldd	r24, Y+3	; 0x03
     5e4:	9c 81       	ldd	r25, Y+4	; 0x04
     5e6:	22 e1       	ldi	r18, 0x12	; 18
     5e8:	fc 01       	movw	r30, r24
     5ea:	20 83       	st	Z, r18
     5ec:	8b 81       	ldd	r24, Y+3	; 0x03
     5ee:	9c 81       	ldd	r25, Y+4	; 0x04
     5f0:	01 97       	sbiw	r24, 0x01	; 1
     5f2:	9c 83       	std	Y+4, r25	; 0x04
     5f4:	8b 83       	std	Y+3, r24	; 0x03
     5f6:	8b 81       	ldd	r24, Y+3	; 0x03
     5f8:	9c 81       	ldd	r25, Y+4	; 0x04
     5fa:	23 e1       	ldi	r18, 0x13	; 19
     5fc:	fc 01       	movw	r30, r24
     5fe:	20 83       	st	Z, r18
     600:	8b 81       	ldd	r24, Y+3	; 0x03
     602:	9c 81       	ldd	r25, Y+4	; 0x04
     604:	01 97       	sbiw	r24, 0x01	; 1
     606:	9c 83       	std	Y+4, r25	; 0x04
     608:	8b 83       	std	Y+3, r24	; 0x03
     60a:	8b 81       	ldd	r24, Y+3	; 0x03
     60c:	9c 81       	ldd	r25, Y+4	; 0x04
     60e:	24 e1       	ldi	r18, 0x14	; 20
     610:	fc 01       	movw	r30, r24
     612:	20 83       	st	Z, r18
     614:	8b 81       	ldd	r24, Y+3	; 0x03
     616:	9c 81       	ldd	r25, Y+4	; 0x04
     618:	01 97       	sbiw	r24, 0x01	; 1
     61a:	9c 83       	std	Y+4, r25	; 0x04
     61c:	8b 83       	std	Y+3, r24	; 0x03
     61e:	8b 81       	ldd	r24, Y+3	; 0x03
     620:	9c 81       	ldd	r25, Y+4	; 0x04
     622:	25 e1       	ldi	r18, 0x15	; 21
     624:	fc 01       	movw	r30, r24
     626:	20 83       	st	Z, r18
     628:	8b 81       	ldd	r24, Y+3	; 0x03
     62a:	9c 81       	ldd	r25, Y+4	; 0x04
     62c:	01 97       	sbiw	r24, 0x01	; 1
     62e:	9c 83       	std	Y+4, r25	; 0x04
     630:	8b 83       	std	Y+3, r24	; 0x03
     632:	8b 81       	ldd	r24, Y+3	; 0x03
     634:	9c 81       	ldd	r25, Y+4	; 0x04
     636:	26 e1       	ldi	r18, 0x16	; 22
     638:	fc 01       	movw	r30, r24
     63a:	20 83       	st	Z, r18
     63c:	8b 81       	ldd	r24, Y+3	; 0x03
     63e:	9c 81       	ldd	r25, Y+4	; 0x04
     640:	01 97       	sbiw	r24, 0x01	; 1
     642:	9c 83       	std	Y+4, r25	; 0x04
     644:	8b 83       	std	Y+3, r24	; 0x03
     646:	8b 81       	ldd	r24, Y+3	; 0x03
     648:	9c 81       	ldd	r25, Y+4	; 0x04
     64a:	27 e1       	ldi	r18, 0x17	; 23
     64c:	fc 01       	movw	r30, r24
     64e:	20 83       	st	Z, r18
     650:	8b 81       	ldd	r24, Y+3	; 0x03
     652:	9c 81       	ldd	r25, Y+4	; 0x04
     654:	01 97       	sbiw	r24, 0x01	; 1
     656:	9c 83       	std	Y+4, r25	; 0x04
     658:	8b 83       	std	Y+3, r24	; 0x03
     65a:	8b 81       	ldd	r24, Y+3	; 0x03
     65c:	9c 81       	ldd	r25, Y+4	; 0x04
     65e:	28 e1       	ldi	r18, 0x18	; 24
     660:	fc 01       	movw	r30, r24
     662:	20 83       	st	Z, r18
     664:	8b 81       	ldd	r24, Y+3	; 0x03
     666:	9c 81       	ldd	r25, Y+4	; 0x04
     668:	01 97       	sbiw	r24, 0x01	; 1
     66a:	9c 83       	std	Y+4, r25	; 0x04
     66c:	8b 83       	std	Y+3, r24	; 0x03
     66e:	8b 81       	ldd	r24, Y+3	; 0x03
     670:	9c 81       	ldd	r25, Y+4	; 0x04
     672:	29 e1       	ldi	r18, 0x19	; 25
     674:	fc 01       	movw	r30, r24
     676:	20 83       	st	Z, r18
     678:	8b 81       	ldd	r24, Y+3	; 0x03
     67a:	9c 81       	ldd	r25, Y+4	; 0x04
     67c:	01 97       	sbiw	r24, 0x01	; 1
     67e:	9c 83       	std	Y+4, r25	; 0x04
     680:	8b 83       	std	Y+3, r24	; 0x03
     682:	8b 81       	ldd	r24, Y+3	; 0x03
     684:	9c 81       	ldd	r25, Y+4	; 0x04
     686:	20 e2       	ldi	r18, 0x20	; 32
     688:	fc 01       	movw	r30, r24
     68a:	20 83       	st	Z, r18
     68c:	8b 81       	ldd	r24, Y+3	; 0x03
     68e:	9c 81       	ldd	r25, Y+4	; 0x04
     690:	01 97       	sbiw	r24, 0x01	; 1
     692:	9c 83       	std	Y+4, r25	; 0x04
     694:	8b 83       	std	Y+3, r24	; 0x03
     696:	8b 81       	ldd	r24, Y+3	; 0x03
     698:	9c 81       	ldd	r25, Y+4	; 0x04
     69a:	21 e2       	ldi	r18, 0x21	; 33
     69c:	fc 01       	movw	r30, r24
     69e:	20 83       	st	Z, r18
     6a0:	8b 81       	ldd	r24, Y+3	; 0x03
     6a2:	9c 81       	ldd	r25, Y+4	; 0x04
     6a4:	01 97       	sbiw	r24, 0x01	; 1
     6a6:	9c 83       	std	Y+4, r25	; 0x04
     6a8:	8b 83       	std	Y+3, r24	; 0x03
     6aa:	8b 81       	ldd	r24, Y+3	; 0x03
     6ac:	9c 81       	ldd	r25, Y+4	; 0x04
     6ae:	22 e2       	ldi	r18, 0x22	; 34
     6b0:	fc 01       	movw	r30, r24
     6b2:	20 83       	st	Z, r18
     6b4:	8b 81       	ldd	r24, Y+3	; 0x03
     6b6:	9c 81       	ldd	r25, Y+4	; 0x04
     6b8:	01 97       	sbiw	r24, 0x01	; 1
     6ba:	9c 83       	std	Y+4, r25	; 0x04
     6bc:	8b 83       	std	Y+3, r24	; 0x03
     6be:	8b 81       	ldd	r24, Y+3	; 0x03
     6c0:	9c 81       	ldd	r25, Y+4	; 0x04
     6c2:	23 e2       	ldi	r18, 0x23	; 35
     6c4:	fc 01       	movw	r30, r24
     6c6:	20 83       	st	Z, r18
     6c8:	8b 81       	ldd	r24, Y+3	; 0x03
     6ca:	9c 81       	ldd	r25, Y+4	; 0x04
     6cc:	01 97       	sbiw	r24, 0x01	; 1
     6ce:	9c 83       	std	Y+4, r25	; 0x04
     6d0:	8b 83       	std	Y+3, r24	; 0x03
     6d2:	8f 81       	ldd	r24, Y+7	; 0x07
     6d4:	98 85       	ldd	r25, Y+8	; 0x08
     6d6:	9a 83       	std	Y+2, r25	; 0x02
     6d8:	89 83       	std	Y+1, r24	; 0x01
     6da:	29 81       	ldd	r18, Y+1	; 0x01
     6dc:	8b 81       	ldd	r24, Y+3	; 0x03
     6de:	9c 81       	ldd	r25, Y+4	; 0x04
     6e0:	fc 01       	movw	r30, r24
     6e2:	20 83       	st	Z, r18
     6e4:	8b 81       	ldd	r24, Y+3	; 0x03
     6e6:	9c 81       	ldd	r25, Y+4	; 0x04
     6e8:	01 97       	sbiw	r24, 0x01	; 1
     6ea:	9c 83       	std	Y+4, r25	; 0x04
     6ec:	8b 83       	std	Y+3, r24	; 0x03
     6ee:	89 81       	ldd	r24, Y+1	; 0x01
     6f0:	9a 81       	ldd	r25, Y+2	; 0x02
     6f2:	89 2f       	mov	r24, r25
     6f4:	99 27       	eor	r25, r25
     6f6:	9a 83       	std	Y+2, r25	; 0x02
     6f8:	89 83       	std	Y+1, r24	; 0x01
     6fa:	29 81       	ldd	r18, Y+1	; 0x01
     6fc:	8b 81       	ldd	r24, Y+3	; 0x03
     6fe:	9c 81       	ldd	r25, Y+4	; 0x04
     700:	fc 01       	movw	r30, r24
     702:	20 83       	st	Z, r18
     704:	8b 81       	ldd	r24, Y+3	; 0x03
     706:	9c 81       	ldd	r25, Y+4	; 0x04
     708:	01 97       	sbiw	r24, 0x01	; 1
     70a:	9c 83       	std	Y+4, r25	; 0x04
     70c:	8b 83       	std	Y+3, r24	; 0x03
     70e:	8b 81       	ldd	r24, Y+3	; 0x03
     710:	9c 81       	ldd	r25, Y+4	; 0x04
     712:	26 e2       	ldi	r18, 0x26	; 38
     714:	fc 01       	movw	r30, r24
     716:	20 83       	st	Z, r18
     718:	8b 81       	ldd	r24, Y+3	; 0x03
     71a:	9c 81       	ldd	r25, Y+4	; 0x04
     71c:	01 97       	sbiw	r24, 0x01	; 1
     71e:	9c 83       	std	Y+4, r25	; 0x04
     720:	8b 83       	std	Y+3, r24	; 0x03
     722:	8b 81       	ldd	r24, Y+3	; 0x03
     724:	9c 81       	ldd	r25, Y+4	; 0x04
     726:	27 e2       	ldi	r18, 0x27	; 39
     728:	fc 01       	movw	r30, r24
     72a:	20 83       	st	Z, r18
     72c:	8b 81       	ldd	r24, Y+3	; 0x03
     72e:	9c 81       	ldd	r25, Y+4	; 0x04
     730:	01 97       	sbiw	r24, 0x01	; 1
     732:	9c 83       	std	Y+4, r25	; 0x04
     734:	8b 83       	std	Y+3, r24	; 0x03
     736:	8b 81       	ldd	r24, Y+3	; 0x03
     738:	9c 81       	ldd	r25, Y+4	; 0x04
     73a:	28 e2       	ldi	r18, 0x28	; 40
     73c:	fc 01       	movw	r30, r24
     73e:	20 83       	st	Z, r18
     740:	8b 81       	ldd	r24, Y+3	; 0x03
     742:	9c 81       	ldd	r25, Y+4	; 0x04
     744:	01 97       	sbiw	r24, 0x01	; 1
     746:	9c 83       	std	Y+4, r25	; 0x04
     748:	8b 83       	std	Y+3, r24	; 0x03
     74a:	8b 81       	ldd	r24, Y+3	; 0x03
     74c:	9c 81       	ldd	r25, Y+4	; 0x04
     74e:	29 e2       	ldi	r18, 0x29	; 41
     750:	fc 01       	movw	r30, r24
     752:	20 83       	st	Z, r18
     754:	8b 81       	ldd	r24, Y+3	; 0x03
     756:	9c 81       	ldd	r25, Y+4	; 0x04
     758:	01 97       	sbiw	r24, 0x01	; 1
     75a:	9c 83       	std	Y+4, r25	; 0x04
     75c:	8b 83       	std	Y+3, r24	; 0x03
     75e:	8b 81       	ldd	r24, Y+3	; 0x03
     760:	9c 81       	ldd	r25, Y+4	; 0x04
     762:	20 e3       	ldi	r18, 0x30	; 48
     764:	fc 01       	movw	r30, r24
     766:	20 83       	st	Z, r18
     768:	8b 81       	ldd	r24, Y+3	; 0x03
     76a:	9c 81       	ldd	r25, Y+4	; 0x04
     76c:	01 97       	sbiw	r24, 0x01	; 1
     76e:	9c 83       	std	Y+4, r25	; 0x04
     770:	8b 83       	std	Y+3, r24	; 0x03
     772:	8b 81       	ldd	r24, Y+3	; 0x03
     774:	9c 81       	ldd	r25, Y+4	; 0x04
     776:	21 e3       	ldi	r18, 0x31	; 49
     778:	fc 01       	movw	r30, r24
     77a:	20 83       	st	Z, r18
     77c:	8b 81       	ldd	r24, Y+3	; 0x03
     77e:	9c 81       	ldd	r25, Y+4	; 0x04
     780:	01 97       	sbiw	r24, 0x01	; 1
     782:	9c 83       	std	Y+4, r25	; 0x04
     784:	8b 83       	std	Y+3, r24	; 0x03
     786:	8b 81       	ldd	r24, Y+3	; 0x03
     788:	9c 81       	ldd	r25, Y+4	; 0x04
     78a:	28 96       	adiw	r28, 0x08	; 8
     78c:	0f b6       	in	r0, 0x3f	; 63
     78e:	f8 94       	cli
     790:	de bf       	out	0x3e, r29	; 62
     792:	0f be       	out	0x3f, r0	; 63
     794:	cd bf       	out	0x3d, r28	; 61
     796:	df 91       	pop	r29
     798:	cf 91       	pop	r28
     79a:	08 95       	ret

0000079c <xPortStartScheduler>:
     79c:	cf 93       	push	r28
     79e:	df 93       	push	r29
     7a0:	cd b7       	in	r28, 0x3d	; 61
     7a2:	de b7       	in	r29, 0x3e	; 62
     7a4:	0f d1       	rcall	.+542    	; 0x9c4 <prvSetupTimerInterrupt>
     7a6:	a0 91 e2 0b 	lds	r26, 0x0BE2	; 0x800be2 <pxCurrentTCB>
     7aa:	b0 91 e3 0b 	lds	r27, 0x0BE3	; 0x800be3 <pxCurrentTCB+0x1>
     7ae:	cd 91       	ld	r28, X+
     7b0:	cd bf       	out	0x3d, r28	; 61
     7b2:	dd 91       	ld	r29, X+
     7b4:	de bf       	out	0x3e, r29	; 62
     7b6:	ff 91       	pop	r31
     7b8:	ef 91       	pop	r30
     7ba:	df 91       	pop	r29
     7bc:	cf 91       	pop	r28
     7be:	bf 91       	pop	r27
     7c0:	af 91       	pop	r26
     7c2:	9f 91       	pop	r25
     7c4:	8f 91       	pop	r24
     7c6:	7f 91       	pop	r23
     7c8:	6f 91       	pop	r22
     7ca:	5f 91       	pop	r21
     7cc:	4f 91       	pop	r20
     7ce:	3f 91       	pop	r19
     7d0:	2f 91       	pop	r18
     7d2:	1f 91       	pop	r17
     7d4:	0f 91       	pop	r16
     7d6:	ff 90       	pop	r15
     7d8:	ef 90       	pop	r14
     7da:	df 90       	pop	r13
     7dc:	cf 90       	pop	r12
     7de:	bf 90       	pop	r11
     7e0:	af 90       	pop	r10
     7e2:	9f 90       	pop	r9
     7e4:	8f 90       	pop	r8
     7e6:	7f 90       	pop	r7
     7e8:	6f 90       	pop	r6
     7ea:	5f 90       	pop	r5
     7ec:	4f 90       	pop	r4
     7ee:	3f 90       	pop	r3
     7f0:	2f 90       	pop	r2
     7f2:	1f 90       	pop	r1
     7f4:	0f 90       	pop	r0
     7f6:	0c be       	out	0x3c, r0	; 60
     7f8:	0f 90       	pop	r0
     7fa:	0b be       	out	0x3b, r0	; 59
     7fc:	0f 90       	pop	r0
     7fe:	0f be       	out	0x3f, r0	; 63
     800:	0f 90       	pop	r0
     802:	08 95       	ret
     804:	81 e0       	ldi	r24, 0x01	; 1
     806:	df 91       	pop	r29
     808:	cf 91       	pop	r28
     80a:	08 95       	ret

0000080c <vPortYield>:
     80c:	0f 92       	push	r0
     80e:	0f b6       	in	r0, 0x3f	; 63
     810:	f8 94       	cli
     812:	0f 92       	push	r0
     814:	0b b6       	in	r0, 0x3b	; 59
     816:	0f 92       	push	r0
     818:	0c b6       	in	r0, 0x3c	; 60
     81a:	0f 92       	push	r0
     81c:	1f 92       	push	r1
     81e:	11 24       	eor	r1, r1
     820:	2f 92       	push	r2
     822:	3f 92       	push	r3
     824:	4f 92       	push	r4
     826:	5f 92       	push	r5
     828:	6f 92       	push	r6
     82a:	7f 92       	push	r7
     82c:	8f 92       	push	r8
     82e:	9f 92       	push	r9
     830:	af 92       	push	r10
     832:	bf 92       	push	r11
     834:	cf 92       	push	r12
     836:	df 92       	push	r13
     838:	ef 92       	push	r14
     83a:	ff 92       	push	r15
     83c:	0f 93       	push	r16
     83e:	1f 93       	push	r17
     840:	2f 93       	push	r18
     842:	3f 93       	push	r19
     844:	4f 93       	push	r20
     846:	5f 93       	push	r21
     848:	6f 93       	push	r22
     84a:	7f 93       	push	r23
     84c:	8f 93       	push	r24
     84e:	9f 93       	push	r25
     850:	af 93       	push	r26
     852:	bf 93       	push	r27
     854:	cf 93       	push	r28
     856:	df 93       	push	r29
     858:	ef 93       	push	r30
     85a:	ff 93       	push	r31
     85c:	a0 91 e2 0b 	lds	r26, 0x0BE2	; 0x800be2 <pxCurrentTCB>
     860:	b0 91 e3 0b 	lds	r27, 0x0BE3	; 0x800be3 <pxCurrentTCB+0x1>
     864:	0d b6       	in	r0, 0x3d	; 61
     866:	0d 92       	st	X+, r0
     868:	0e b6       	in	r0, 0x3e	; 62
     86a:	0d 92       	st	X+, r0
     86c:	0e 94 6a 0d 	call	0x1ad4	; 0x1ad4 <vTaskSwitchContext>
     870:	a0 91 e2 0b 	lds	r26, 0x0BE2	; 0x800be2 <pxCurrentTCB>
     874:	b0 91 e3 0b 	lds	r27, 0x0BE3	; 0x800be3 <pxCurrentTCB+0x1>
     878:	cd 91       	ld	r28, X+
     87a:	cd bf       	out	0x3d, r28	; 61
     87c:	dd 91       	ld	r29, X+
     87e:	de bf       	out	0x3e, r29	; 62
     880:	ff 91       	pop	r31
     882:	ef 91       	pop	r30
     884:	df 91       	pop	r29
     886:	cf 91       	pop	r28
     888:	bf 91       	pop	r27
     88a:	af 91       	pop	r26
     88c:	9f 91       	pop	r25
     88e:	8f 91       	pop	r24
     890:	7f 91       	pop	r23
     892:	6f 91       	pop	r22
     894:	5f 91       	pop	r21
     896:	4f 91       	pop	r20
     898:	3f 91       	pop	r19
     89a:	2f 91       	pop	r18
     89c:	1f 91       	pop	r17
     89e:	0f 91       	pop	r16
     8a0:	ff 90       	pop	r15
     8a2:	ef 90       	pop	r14
     8a4:	df 90       	pop	r13
     8a6:	cf 90       	pop	r12
     8a8:	bf 90       	pop	r11
     8aa:	af 90       	pop	r10
     8ac:	9f 90       	pop	r9
     8ae:	8f 90       	pop	r8
     8b0:	7f 90       	pop	r7
     8b2:	6f 90       	pop	r6
     8b4:	5f 90       	pop	r5
     8b6:	4f 90       	pop	r4
     8b8:	3f 90       	pop	r3
     8ba:	2f 90       	pop	r2
     8bc:	1f 90       	pop	r1
     8be:	0f 90       	pop	r0
     8c0:	0c be       	out	0x3c, r0	; 60
     8c2:	0f 90       	pop	r0
     8c4:	0b be       	out	0x3b, r0	; 59
     8c6:	0f 90       	pop	r0
     8c8:	0f be       	out	0x3f, r0	; 63
     8ca:	0f 90       	pop	r0
     8cc:	08 95       	ret

000008ce <vPortYieldFromTick>:
     8ce:	0f 92       	push	r0
     8d0:	0f b6       	in	r0, 0x3f	; 63
     8d2:	f8 94       	cli
     8d4:	0f 92       	push	r0
     8d6:	0b b6       	in	r0, 0x3b	; 59
     8d8:	0f 92       	push	r0
     8da:	0c b6       	in	r0, 0x3c	; 60
     8dc:	0f 92       	push	r0
     8de:	1f 92       	push	r1
     8e0:	11 24       	eor	r1, r1
     8e2:	2f 92       	push	r2
     8e4:	3f 92       	push	r3
     8e6:	4f 92       	push	r4
     8e8:	5f 92       	push	r5
     8ea:	6f 92       	push	r6
     8ec:	7f 92       	push	r7
     8ee:	8f 92       	push	r8
     8f0:	9f 92       	push	r9
     8f2:	af 92       	push	r10
     8f4:	bf 92       	push	r11
     8f6:	cf 92       	push	r12
     8f8:	df 92       	push	r13
     8fa:	ef 92       	push	r14
     8fc:	ff 92       	push	r15
     8fe:	0f 93       	push	r16
     900:	1f 93       	push	r17
     902:	2f 93       	push	r18
     904:	3f 93       	push	r19
     906:	4f 93       	push	r20
     908:	5f 93       	push	r21
     90a:	6f 93       	push	r22
     90c:	7f 93       	push	r23
     90e:	8f 93       	push	r24
     910:	9f 93       	push	r25
     912:	af 93       	push	r26
     914:	bf 93       	push	r27
     916:	cf 93       	push	r28
     918:	df 93       	push	r29
     91a:	ef 93       	push	r30
     91c:	ff 93       	push	r31
     91e:	a0 91 e2 0b 	lds	r26, 0x0BE2	; 0x800be2 <pxCurrentTCB>
     922:	b0 91 e3 0b 	lds	r27, 0x0BE3	; 0x800be3 <pxCurrentTCB+0x1>
     926:	0d b6       	in	r0, 0x3d	; 61
     928:	0d 92       	st	X+, r0
     92a:	0e b6       	in	r0, 0x3e	; 62
     92c:	0d 92       	st	X+, r0
     92e:	80 91 18 02 	lds	r24, 0x0218	; 0x800218 <ticksRemainingInSec>
     932:	90 91 19 02 	lds	r25, 0x0219	; 0x800219 <ticksRemainingInSec+0x1>
     936:	01 97       	sbiw	r24, 0x01	; 1
     938:	90 93 19 02 	sts	0x0219, r25	; 0x800219 <ticksRemainingInSec+0x1>
     93c:	80 93 18 02 	sts	0x0218, r24	; 0x800218 <ticksRemainingInSec>
     940:	80 91 18 02 	lds	r24, 0x0218	; 0x800218 <ticksRemainingInSec>
     944:	90 91 19 02 	lds	r25, 0x0219	; 0x800219 <ticksRemainingInSec+0x1>
     948:	89 2b       	or	r24, r25
     94a:	41 f4       	brne	.+16     	; 0x95c <vPortYieldFromTick+0x8e>
     94c:	80 91 16 02 	lds	r24, 0x0216	; 0x800216 <__data_end>
     950:	90 91 17 02 	lds	r25, 0x0217	; 0x800217 <__data_end+0x1>
     954:	90 93 19 02 	sts	0x0219, r25	; 0x800219 <ticksRemainingInSec+0x1>
     958:	80 93 18 02 	sts	0x0218, r24	; 0x800218 <ticksRemainingInSec>
     95c:	ce d7       	rcall	.+3996   	; 0x18fa <xTaskIncrementTick>
     95e:	88 23       	and	r24, r24
     960:	11 f0       	breq	.+4      	; 0x966 <vPortYieldFromTick+0x98>
     962:	0e 94 6a 0d 	call	0x1ad4	; 0x1ad4 <vTaskSwitchContext>
     966:	a0 91 e2 0b 	lds	r26, 0x0BE2	; 0x800be2 <pxCurrentTCB>
     96a:	b0 91 e3 0b 	lds	r27, 0x0BE3	; 0x800be3 <pxCurrentTCB+0x1>
     96e:	cd 91       	ld	r28, X+
     970:	cd bf       	out	0x3d, r28	; 61
     972:	dd 91       	ld	r29, X+
     974:	de bf       	out	0x3e, r29	; 62
     976:	ff 91       	pop	r31
     978:	ef 91       	pop	r30
     97a:	df 91       	pop	r29
     97c:	cf 91       	pop	r28
     97e:	bf 91       	pop	r27
     980:	af 91       	pop	r26
     982:	9f 91       	pop	r25
     984:	8f 91       	pop	r24
     986:	7f 91       	pop	r23
     988:	6f 91       	pop	r22
     98a:	5f 91       	pop	r21
     98c:	4f 91       	pop	r20
     98e:	3f 91       	pop	r19
     990:	2f 91       	pop	r18
     992:	1f 91       	pop	r17
     994:	0f 91       	pop	r16
     996:	ff 90       	pop	r15
     998:	ef 90       	pop	r14
     99a:	df 90       	pop	r13
     99c:	cf 90       	pop	r12
     99e:	bf 90       	pop	r11
     9a0:	af 90       	pop	r10
     9a2:	9f 90       	pop	r9
     9a4:	8f 90       	pop	r8
     9a6:	7f 90       	pop	r7
     9a8:	6f 90       	pop	r6
     9aa:	5f 90       	pop	r5
     9ac:	4f 90       	pop	r4
     9ae:	3f 90       	pop	r3
     9b0:	2f 90       	pop	r2
     9b2:	1f 90       	pop	r1
     9b4:	0f 90       	pop	r0
     9b6:	0c be       	out	0x3c, r0	; 60
     9b8:	0f 90       	pop	r0
     9ba:	0b be       	out	0x3b, r0	; 59
     9bc:	0f 90       	pop	r0
     9be:	0f be       	out	0x3f, r0	; 63
     9c0:	0f 90       	pop	r0
     9c2:	08 95       	ret

000009c4 <prvSetupTimerInterrupt>:
     9c4:	cf 93       	push	r28
     9c6:	df 93       	push	r29
     9c8:	cd b7       	in	r28, 0x3d	; 61
     9ca:	de b7       	in	r29, 0x3e	; 62
     9cc:	2a 97       	sbiw	r28, 0x0a	; 10
     9ce:	0f b6       	in	r0, 0x3f	; 63
     9d0:	f8 94       	cli
     9d2:	de bf       	out	0x3e, r29	; 62
     9d4:	0f be       	out	0x3f, r0	; 63
     9d6:	cd bf       	out	0x3d, r28	; 61
     9d8:	80 e1       	ldi	r24, 0x10	; 16
     9da:	97 e2       	ldi	r25, 0x27	; 39
     9dc:	a0 e0       	ldi	r26, 0x00	; 0
     9de:	b0 e0       	ldi	r27, 0x00	; 0
     9e0:	89 83       	std	Y+1, r24	; 0x01
     9e2:	9a 83       	std	Y+2, r25	; 0x02
     9e4:	ab 83       	std	Y+3, r26	; 0x03
     9e6:	bc 83       	std	Y+4, r27	; 0x04
     9e8:	89 81       	ldd	r24, Y+1	; 0x01
     9ea:	9a 81       	ldd	r25, Y+2	; 0x02
     9ec:	ab 81       	ldd	r26, Y+3	; 0x03
     9ee:	bc 81       	ldd	r27, Y+4	; 0x04
     9f0:	68 94       	set
     9f2:	15 f8       	bld	r1, 5
     9f4:	b6 95       	lsr	r27
     9f6:	a7 95       	ror	r26
     9f8:	97 95       	ror	r25
     9fa:	87 95       	ror	r24
     9fc:	16 94       	lsr	r1
     9fe:	d1 f7       	brne	.-12     	; 0x9f4 <prvSetupTimerInterrupt+0x30>
     a00:	89 83       	std	Y+1, r24	; 0x01
     a02:	9a 83       	std	Y+2, r25	; 0x02
     a04:	ab 83       	std	Y+3, r26	; 0x03
     a06:	bc 83       	std	Y+4, r27	; 0x04
     a08:	89 81       	ldd	r24, Y+1	; 0x01
     a0a:	9a 81       	ldd	r25, Y+2	; 0x02
     a0c:	ab 81       	ldd	r26, Y+3	; 0x03
     a0e:	bc 81       	ldd	r27, Y+4	; 0x04
     a10:	88 0f       	add	r24, r24
     a12:	99 1f       	adc	r25, r25
     a14:	aa 1f       	adc	r26, r26
     a16:	bb 1f       	adc	r27, r27
     a18:	88 0f       	add	r24, r24
     a1a:	99 1f       	adc	r25, r25
     a1c:	aa 1f       	adc	r26, r26
     a1e:	bb 1f       	adc	r27, r27
     a20:	88 0f       	add	r24, r24
     a22:	99 1f       	adc	r25, r25
     a24:	aa 1f       	adc	r26, r26
     a26:	bb 1f       	adc	r27, r27
     a28:	88 0f       	add	r24, r24
     a2a:	99 1f       	adc	r25, r25
     a2c:	aa 1f       	adc	r26, r26
     a2e:	bb 1f       	adc	r27, r27
     a30:	88 0f       	add	r24, r24
     a32:	99 1f       	adc	r25, r25
     a34:	aa 1f       	adc	r26, r26
     a36:	bb 1f       	adc	r27, r27
     a38:	88 0f       	add	r24, r24
     a3a:	99 1f       	adc	r25, r25
     a3c:	aa 1f       	adc	r26, r26
     a3e:	bb 1f       	adc	r27, r27
     a40:	9c 01       	movw	r18, r24
     a42:	ad 01       	movw	r20, r26
     a44:	80 e8       	ldi	r24, 0x80	; 128
     a46:	96 e9       	ldi	r25, 0x96	; 150
     a48:	a8 e9       	ldi	r26, 0x98	; 152
     a4a:	b0 e0       	ldi	r27, 0x00	; 0
     a4c:	bc 01       	movw	r22, r24
     a4e:	cd 01       	movw	r24, r26
     a50:	0e 94 9c 12 	call	0x2538	; 0x2538 <__udivmodsi4>
     a54:	da 01       	movw	r26, r20
     a56:	c9 01       	movw	r24, r18
     a58:	90 93 17 02 	sts	0x0217, r25	; 0x800217 <__data_end+0x1>
     a5c:	80 93 16 02 	sts	0x0216, r24	; 0x800216 <__data_end>
     a60:	80 91 16 02 	lds	r24, 0x0216	; 0x800216 <__data_end>
     a64:	90 91 17 02 	lds	r25, 0x0217	; 0x800217 <__data_end+0x1>
     a68:	90 93 19 02 	sts	0x0219, r25	; 0x800219 <ticksRemainingInSec+0x1>
     a6c:	80 93 18 02 	sts	0x0218, r24	; 0x800218 <ticksRemainingInSec>
     a70:	89 81       	ldd	r24, Y+1	; 0x01
     a72:	9a 81       	ldd	r25, Y+2	; 0x02
     a74:	ab 81       	ldd	r26, Y+3	; 0x03
     a76:	bc 81       	ldd	r27, Y+4	; 0x04
     a78:	01 97       	sbiw	r24, 0x01	; 1
     a7a:	a1 09       	sbc	r26, r1
     a7c:	b1 09       	sbc	r27, r1
     a7e:	89 83       	std	Y+1, r24	; 0x01
     a80:	9a 83       	std	Y+2, r25	; 0x02
     a82:	ab 83       	std	Y+3, r26	; 0x03
     a84:	bc 83       	std	Y+4, r27	; 0x04
     a86:	89 81       	ldd	r24, Y+1	; 0x01
     a88:	8d 83       	std	Y+5, r24	; 0x05
     a8a:	89 81       	ldd	r24, Y+1	; 0x01
     a8c:	9a 81       	ldd	r25, Y+2	; 0x02
     a8e:	ab 81       	ldd	r26, Y+3	; 0x03
     a90:	bc 81       	ldd	r27, Y+4	; 0x04
     a92:	89 2f       	mov	r24, r25
     a94:	9a 2f       	mov	r25, r26
     a96:	ab 2f       	mov	r26, r27
     a98:	bb 27       	eor	r27, r27
     a9a:	89 83       	std	Y+1, r24	; 0x01
     a9c:	9a 83       	std	Y+2, r25	; 0x02
     a9e:	ab 83       	std	Y+3, r26	; 0x03
     aa0:	bc 83       	std	Y+4, r27	; 0x04
     aa2:	89 81       	ldd	r24, Y+1	; 0x01
     aa4:	8e 83       	std	Y+6, r24	; 0x06
     aa6:	89 e9       	ldi	r24, 0x99	; 153
     aa8:	90 e0       	ldi	r25, 0x00	; 0
     aaa:	2e 81       	ldd	r18, Y+6	; 0x06
     aac:	fc 01       	movw	r30, r24
     aae:	20 83       	st	Z, r18
     ab0:	88 e9       	ldi	r24, 0x98	; 152
     ab2:	90 e0       	ldi	r25, 0x00	; 0
     ab4:	2d 81       	ldd	r18, Y+5	; 0x05
     ab6:	fc 01       	movw	r30, r24
     ab8:	20 83       	st	Z, r18
     aba:	8b e0       	ldi	r24, 0x0B	; 11
     abc:	8d 83       	std	Y+5, r24	; 0x05
     abe:	81 e9       	ldi	r24, 0x91	; 145
     ac0:	90 e0       	ldi	r25, 0x00	; 0
     ac2:	2d 81       	ldd	r18, Y+5	; 0x05
     ac4:	fc 01       	movw	r30, r24
     ac6:	20 83       	st	Z, r18
     ac8:	81 e7       	ldi	r24, 0x71	; 113
     aca:	90 e0       	ldi	r25, 0x00	; 0
     acc:	fc 01       	movw	r30, r24
     ace:	80 81       	ld	r24, Z
     ad0:	8d 83       	std	Y+5, r24	; 0x05
     ad2:	8d 81       	ldd	r24, Y+5	; 0x05
     ad4:	82 60       	ori	r24, 0x02	; 2
     ad6:	8d 83       	std	Y+5, r24	; 0x05
     ad8:	81 e7       	ldi	r24, 0x71	; 113
     ada:	90 e0       	ldi	r25, 0x00	; 0
     adc:	2d 81       	ldd	r18, Y+5	; 0x05
     ade:	fc 01       	movw	r30, r24
     ae0:	20 83       	st	Z, r18
     ae2:	2a 96       	adiw	r28, 0x0a	; 10
     ae4:	0f b6       	in	r0, 0x3f	; 63
     ae6:	f8 94       	cli
     ae8:	de bf       	out	0x3e, r29	; 62
     aea:	0f be       	out	0x3f, r0	; 63
     aec:	cd bf       	out	0x3d, r28	; 61
     aee:	df 91       	pop	r29
     af0:	cf 91       	pop	r28
     af2:	08 95       	ret

00000af4 <__vector_32>:
     af4:	ec de       	rcall	.-552    	; 0x8ce <vPortYieldFromTick>
     af6:	18 95       	reti

00000af8 <pvPortMalloc>:
     af8:	cf 93       	push	r28
     afa:	df 93       	push	r29
     afc:	00 d0       	rcall	.+0      	; 0xafe <pvPortMalloc+0x6>
     afe:	1f 92       	push	r1
     b00:	cd b7       	in	r28, 0x3d	; 61
     b02:	de b7       	in	r29, 0x3e	; 62
     b04:	9c 83       	std	Y+4, r25	; 0x04
     b06:	8b 83       	std	Y+3, r24	; 0x03
     b08:	1a 82       	std	Y+2, r1	; 0x02
     b0a:	19 82       	std	Y+1, r1	; 0x01
     b0c:	5e d6       	rcall	.+3260   	; 0x17ca <vTaskSuspendAll>
     b0e:	80 91 e0 0b 	lds	r24, 0x0BE0	; 0x800be0 <pucAlignedHeap.1892>
     b12:	90 91 e1 0b 	lds	r25, 0x0BE1	; 0x800be1 <pucAlignedHeap.1892+0x1>
     b16:	89 2b       	or	r24, r25
     b18:	31 f4       	brne	.+12     	; 0xb26 <pvPortMalloc+0x2e>
     b1a:	8b e1       	ldi	r24, 0x1B	; 27
     b1c:	92 e0       	ldi	r25, 0x02	; 2
     b1e:	90 93 e1 0b 	sts	0x0BE1, r25	; 0x800be1 <pucAlignedHeap.1892+0x1>
     b22:	80 93 e0 0b 	sts	0x0BE0, r24	; 0x800be0 <pucAlignedHeap.1892>
     b26:	20 91 de 0b 	lds	r18, 0x0BDE	; 0x800bde <xNextFreeByte>
     b2a:	30 91 df 0b 	lds	r19, 0x0BDF	; 0x800bdf <xNextFreeByte+0x1>
     b2e:	8b 81       	ldd	r24, Y+3	; 0x03
     b30:	9c 81       	ldd	r25, Y+4	; 0x04
     b32:	82 0f       	add	r24, r18
     b34:	93 1f       	adc	r25, r19
     b36:	83 3c       	cpi	r24, 0xC3	; 195
     b38:	99 40       	sbci	r25, 0x09	; 9
     b3a:	38 f5       	brcc	.+78     	; 0xb8a <pvPortMalloc+0x92>
     b3c:	20 91 de 0b 	lds	r18, 0x0BDE	; 0x800bde <xNextFreeByte>
     b40:	30 91 df 0b 	lds	r19, 0x0BDF	; 0x800bdf <xNextFreeByte+0x1>
     b44:	8b 81       	ldd	r24, Y+3	; 0x03
     b46:	9c 81       	ldd	r25, Y+4	; 0x04
     b48:	28 0f       	add	r18, r24
     b4a:	39 1f       	adc	r19, r25
     b4c:	80 91 de 0b 	lds	r24, 0x0BDE	; 0x800bde <xNextFreeByte>
     b50:	90 91 df 0b 	lds	r25, 0x0BDF	; 0x800bdf <xNextFreeByte+0x1>
     b54:	82 17       	cp	r24, r18
     b56:	93 07       	cpc	r25, r19
     b58:	c0 f4       	brcc	.+48     	; 0xb8a <pvPortMalloc+0x92>
     b5a:	20 91 e0 0b 	lds	r18, 0x0BE0	; 0x800be0 <pucAlignedHeap.1892>
     b5e:	30 91 e1 0b 	lds	r19, 0x0BE1	; 0x800be1 <pucAlignedHeap.1892+0x1>
     b62:	80 91 de 0b 	lds	r24, 0x0BDE	; 0x800bde <xNextFreeByte>
     b66:	90 91 df 0b 	lds	r25, 0x0BDF	; 0x800bdf <xNextFreeByte+0x1>
     b6a:	82 0f       	add	r24, r18
     b6c:	93 1f       	adc	r25, r19
     b6e:	9a 83       	std	Y+2, r25	; 0x02
     b70:	89 83       	std	Y+1, r24	; 0x01
     b72:	20 91 de 0b 	lds	r18, 0x0BDE	; 0x800bde <xNextFreeByte>
     b76:	30 91 df 0b 	lds	r19, 0x0BDF	; 0x800bdf <xNextFreeByte+0x1>
     b7a:	8b 81       	ldd	r24, Y+3	; 0x03
     b7c:	9c 81       	ldd	r25, Y+4	; 0x04
     b7e:	82 0f       	add	r24, r18
     b80:	93 1f       	adc	r25, r19
     b82:	90 93 df 0b 	sts	0x0BDF, r25	; 0x800bdf <xNextFreeByte+0x1>
     b86:	80 93 de 0b 	sts	0x0BDE, r24	; 0x800bde <xNextFreeByte>
     b8a:	2b d6       	rcall	.+3158   	; 0x17e2 <xTaskResumeAll>
     b8c:	89 81       	ldd	r24, Y+1	; 0x01
     b8e:	9a 81       	ldd	r25, Y+2	; 0x02
     b90:	0f 90       	pop	r0
     b92:	0f 90       	pop	r0
     b94:	0f 90       	pop	r0
     b96:	0f 90       	pop	r0
     b98:	df 91       	pop	r29
     b9a:	cf 91       	pop	r28
     b9c:	08 95       	ret

00000b9e <vPortFree>:
     b9e:	cf 93       	push	r28
     ba0:	df 93       	push	r29
     ba2:	1f 92       	push	r1
     ba4:	1f 92       	push	r1
     ba6:	cd b7       	in	r28, 0x3d	; 61
     ba8:	de b7       	in	r29, 0x3e	; 62
     baa:	9a 83       	std	Y+2, r25	; 0x02
     bac:	89 83       	std	Y+1, r24	; 0x01
     bae:	0f 90       	pop	r0
     bb0:	0f 90       	pop	r0
     bb2:	df 91       	pop	r29
     bb4:	cf 91       	pop	r28
     bb6:	08 95       	ret

00000bb8 <xQueueGenericReset>:
     bb8:	cf 93       	push	r28
     bba:	df 93       	push	r29
     bbc:	00 d0       	rcall	.+0      	; 0xbbe <xQueueGenericReset+0x6>
     bbe:	1f 92       	push	r1
     bc0:	1f 92       	push	r1
     bc2:	cd b7       	in	r28, 0x3d	; 61
     bc4:	de b7       	in	r29, 0x3e	; 62
     bc6:	9c 83       	std	Y+4, r25	; 0x04
     bc8:	8b 83       	std	Y+3, r24	; 0x03
     bca:	6d 83       	std	Y+5, r22	; 0x05
     bcc:	8b 81       	ldd	r24, Y+3	; 0x03
     bce:	9c 81       	ldd	r25, Y+4	; 0x04
     bd0:	9a 83       	std	Y+2, r25	; 0x02
     bd2:	89 83       	std	Y+1, r24	; 0x01
     bd4:	0f b6       	in	r0, 0x3f	; 63
     bd6:	f8 94       	cli
     bd8:	0f 92       	push	r0
     bda:	89 81       	ldd	r24, Y+1	; 0x01
     bdc:	9a 81       	ldd	r25, Y+2	; 0x02
     bde:	fc 01       	movw	r30, r24
     be0:	80 81       	ld	r24, Z
     be2:	91 81       	ldd	r25, Z+1	; 0x01
     be4:	29 81       	ldd	r18, Y+1	; 0x01
     be6:	3a 81       	ldd	r19, Y+2	; 0x02
     be8:	f9 01       	movw	r30, r18
     bea:	23 8d       	ldd	r18, Z+27	; 0x1b
     bec:	42 2f       	mov	r20, r18
     bee:	50 e0       	ldi	r21, 0x00	; 0
     bf0:	29 81       	ldd	r18, Y+1	; 0x01
     bf2:	3a 81       	ldd	r19, Y+2	; 0x02
     bf4:	f9 01       	movw	r30, r18
     bf6:	24 8d       	ldd	r18, Z+28	; 0x1c
     bf8:	22 2f       	mov	r18, r18
     bfa:	30 e0       	ldi	r19, 0x00	; 0
     bfc:	42 9f       	mul	r20, r18
     bfe:	b0 01       	movw	r22, r0
     c00:	43 9f       	mul	r20, r19
     c02:	70 0d       	add	r23, r0
     c04:	52 9f       	mul	r21, r18
     c06:	70 0d       	add	r23, r0
     c08:	11 24       	eor	r1, r1
     c0a:	9b 01       	movw	r18, r22
     c0c:	28 0f       	add	r18, r24
     c0e:	39 1f       	adc	r19, r25
     c10:	89 81       	ldd	r24, Y+1	; 0x01
     c12:	9a 81       	ldd	r25, Y+2	; 0x02
     c14:	fc 01       	movw	r30, r24
     c16:	33 83       	std	Z+3, r19	; 0x03
     c18:	22 83       	std	Z+2, r18	; 0x02
     c1a:	89 81       	ldd	r24, Y+1	; 0x01
     c1c:	9a 81       	ldd	r25, Y+2	; 0x02
     c1e:	fc 01       	movw	r30, r24
     c20:	12 8e       	std	Z+26, r1	; 0x1a
     c22:	89 81       	ldd	r24, Y+1	; 0x01
     c24:	9a 81       	ldd	r25, Y+2	; 0x02
     c26:	fc 01       	movw	r30, r24
     c28:	20 81       	ld	r18, Z
     c2a:	31 81       	ldd	r19, Z+1	; 0x01
     c2c:	89 81       	ldd	r24, Y+1	; 0x01
     c2e:	9a 81       	ldd	r25, Y+2	; 0x02
     c30:	fc 01       	movw	r30, r24
     c32:	35 83       	std	Z+5, r19	; 0x05
     c34:	24 83       	std	Z+4, r18	; 0x04
     c36:	89 81       	ldd	r24, Y+1	; 0x01
     c38:	9a 81       	ldd	r25, Y+2	; 0x02
     c3a:	fc 01       	movw	r30, r24
     c3c:	80 81       	ld	r24, Z
     c3e:	91 81       	ldd	r25, Z+1	; 0x01
     c40:	29 81       	ldd	r18, Y+1	; 0x01
     c42:	3a 81       	ldd	r19, Y+2	; 0x02
     c44:	f9 01       	movw	r30, r18
     c46:	23 8d       	ldd	r18, Z+27	; 0x1b
     c48:	22 2f       	mov	r18, r18
     c4a:	30 e0       	ldi	r19, 0x00	; 0
     c4c:	a9 01       	movw	r20, r18
     c4e:	41 50       	subi	r20, 0x01	; 1
     c50:	51 09       	sbc	r21, r1
     c52:	29 81       	ldd	r18, Y+1	; 0x01
     c54:	3a 81       	ldd	r19, Y+2	; 0x02
     c56:	f9 01       	movw	r30, r18
     c58:	24 8d       	ldd	r18, Z+28	; 0x1c
     c5a:	22 2f       	mov	r18, r18
     c5c:	30 e0       	ldi	r19, 0x00	; 0
     c5e:	42 9f       	mul	r20, r18
     c60:	b0 01       	movw	r22, r0
     c62:	43 9f       	mul	r20, r19
     c64:	70 0d       	add	r23, r0
     c66:	52 9f       	mul	r21, r18
     c68:	70 0d       	add	r23, r0
     c6a:	11 24       	eor	r1, r1
     c6c:	9b 01       	movw	r18, r22
     c6e:	28 0f       	add	r18, r24
     c70:	39 1f       	adc	r19, r25
     c72:	89 81       	ldd	r24, Y+1	; 0x01
     c74:	9a 81       	ldd	r25, Y+2	; 0x02
     c76:	fc 01       	movw	r30, r24
     c78:	37 83       	std	Z+7, r19	; 0x07
     c7a:	26 83       	std	Z+6, r18	; 0x06
     c7c:	89 81       	ldd	r24, Y+1	; 0x01
     c7e:	9a 81       	ldd	r25, Y+2	; 0x02
     c80:	2f ef       	ldi	r18, 0xFF	; 255
     c82:	fc 01       	movw	r30, r24
     c84:	25 8f       	std	Z+29, r18	; 0x1d
     c86:	89 81       	ldd	r24, Y+1	; 0x01
     c88:	9a 81       	ldd	r25, Y+2	; 0x02
     c8a:	2f ef       	ldi	r18, 0xFF	; 255
     c8c:	fc 01       	movw	r30, r24
     c8e:	26 8f       	std	Z+30, r18	; 0x1e
     c90:	8d 81       	ldd	r24, Y+5	; 0x05
     c92:	88 23       	and	r24, r24
     c94:	71 f4       	brne	.+28     	; 0xcb2 <xQueueGenericReset+0xfa>
     c96:	89 81       	ldd	r24, Y+1	; 0x01
     c98:	9a 81       	ldd	r25, Y+2	; 0x02
     c9a:	fc 01       	movw	r30, r24
     c9c:	80 85       	ldd	r24, Z+8	; 0x08
     c9e:	88 23       	and	r24, r24
     ca0:	81 f0       	breq	.+32     	; 0xcc2 <xQueueGenericReset+0x10a>
     ca2:	89 81       	ldd	r24, Y+1	; 0x01
     ca4:	9a 81       	ldd	r25, Y+2	; 0x02
     ca6:	08 96       	adiw	r24, 0x08	; 8
     ca8:	d6 d7       	rcall	.+4012   	; 0x1c56 <xTaskRemoveFromEventList>
     caa:	81 30       	cpi	r24, 0x01	; 1
     cac:	51 f4       	brne	.+20     	; 0xcc2 <xQueueGenericReset+0x10a>
     cae:	ae dd       	rcall	.-1188   	; 0x80c <vPortYield>
     cb0:	08 c0       	rjmp	.+16     	; 0xcc2 <xQueueGenericReset+0x10a>
     cb2:	89 81       	ldd	r24, Y+1	; 0x01
     cb4:	9a 81       	ldd	r25, Y+2	; 0x02
     cb6:	08 96       	adiw	r24, 0x08	; 8
     cb8:	4a da       	rcall	.-2924   	; 0x14e <vListInitialise>
     cba:	89 81       	ldd	r24, Y+1	; 0x01
     cbc:	9a 81       	ldd	r25, Y+2	; 0x02
     cbe:	41 96       	adiw	r24, 0x11	; 17
     cc0:	46 da       	rcall	.-2932   	; 0x14e <vListInitialise>
     cc2:	0f 90       	pop	r0
     cc4:	0f be       	out	0x3f, r0	; 63
     cc6:	81 e0       	ldi	r24, 0x01	; 1
     cc8:	0f 90       	pop	r0
     cca:	0f 90       	pop	r0
     ccc:	0f 90       	pop	r0
     cce:	0f 90       	pop	r0
     cd0:	0f 90       	pop	r0
     cd2:	df 91       	pop	r29
     cd4:	cf 91       	pop	r28
     cd6:	08 95       	ret

00000cd8 <xQueueGenericCreate>:
     cd8:	cf 93       	push	r28
     cda:	df 93       	push	r29
     cdc:	cd b7       	in	r28, 0x3d	; 61
     cde:	de b7       	in	r29, 0x3e	; 62
     ce0:	2b 97       	sbiw	r28, 0x0b	; 11
     ce2:	0f b6       	in	r0, 0x3f	; 63
     ce4:	f8 94       	cli
     ce6:	de bf       	out	0x3e, r29	; 62
     ce8:	0f be       	out	0x3f, r0	; 63
     cea:	cd bf       	out	0x3d, r28	; 61
     cec:	89 87       	std	Y+9, r24	; 0x09
     cee:	6a 87       	std	Y+10, r22	; 0x0a
     cf0:	4b 87       	std	Y+11, r20	; 0x0b
     cf2:	1c 82       	std	Y+4, r1	; 0x04
     cf4:	1b 82       	std	Y+3, r1	; 0x03
     cf6:	8a 85       	ldd	r24, Y+10	; 0x0a
     cf8:	88 23       	and	r24, r24
     cfa:	19 f4       	brne	.+6      	; 0xd02 <xQueueGenericCreate+0x2a>
     cfc:	1a 82       	std	Y+2, r1	; 0x02
     cfe:	19 82       	std	Y+1, r1	; 0x01
     d00:	11 c0       	rjmp	.+34     	; 0xd24 <xQueueGenericCreate+0x4c>
     d02:	89 85       	ldd	r24, Y+9	; 0x09
     d04:	28 2f       	mov	r18, r24
     d06:	30 e0       	ldi	r19, 0x00	; 0
     d08:	8a 85       	ldd	r24, Y+10	; 0x0a
     d0a:	88 2f       	mov	r24, r24
     d0c:	90 e0       	ldi	r25, 0x00	; 0
     d0e:	28 9f       	mul	r18, r24
     d10:	a0 01       	movw	r20, r0
     d12:	29 9f       	mul	r18, r25
     d14:	50 0d       	add	r21, r0
     d16:	38 9f       	mul	r19, r24
     d18:	50 0d       	add	r21, r0
     d1a:	11 24       	eor	r1, r1
     d1c:	ca 01       	movw	r24, r20
     d1e:	01 96       	adiw	r24, 0x01	; 1
     d20:	9a 83       	std	Y+2, r25	; 0x02
     d22:	89 83       	std	Y+1, r24	; 0x01
     d24:	89 81       	ldd	r24, Y+1	; 0x01
     d26:	9a 81       	ldd	r25, Y+2	; 0x02
     d28:	4f 96       	adiw	r24, 0x1f	; 31
     d2a:	e6 de       	rcall	.-564    	; 0xaf8 <pvPortMalloc>
     d2c:	9e 83       	std	Y+6, r25	; 0x06
     d2e:	8d 83       	std	Y+5, r24	; 0x05
     d30:	8d 81       	ldd	r24, Y+5	; 0x05
     d32:	9e 81       	ldd	r25, Y+6	; 0x06
     d34:	89 2b       	or	r24, r25
     d36:	59 f1       	breq	.+86     	; 0xd8e <xQueueGenericCreate+0xb6>
     d38:	8d 81       	ldd	r24, Y+5	; 0x05
     d3a:	9e 81       	ldd	r25, Y+6	; 0x06
     d3c:	98 87       	std	Y+8, r25	; 0x08
     d3e:	8f 83       	std	Y+7, r24	; 0x07
     d40:	8a 85       	ldd	r24, Y+10	; 0x0a
     d42:	88 23       	and	r24, r24
     d44:	41 f4       	brne	.+16     	; 0xd56 <xQueueGenericCreate+0x7e>
     d46:	8f 81       	ldd	r24, Y+7	; 0x07
     d48:	98 85       	ldd	r25, Y+8	; 0x08
     d4a:	2f 81       	ldd	r18, Y+7	; 0x07
     d4c:	38 85       	ldd	r19, Y+8	; 0x08
     d4e:	fc 01       	movw	r30, r24
     d50:	31 83       	std	Z+1, r19	; 0x01
     d52:	20 83       	st	Z, r18
     d54:	0a c0       	rjmp	.+20     	; 0xd6a <xQueueGenericCreate+0x92>
     d56:	8d 81       	ldd	r24, Y+5	; 0x05
     d58:	9e 81       	ldd	r25, Y+6	; 0x06
     d5a:	9c 01       	movw	r18, r24
     d5c:	21 5e       	subi	r18, 0xE1	; 225
     d5e:	3f 4f       	sbci	r19, 0xFF	; 255
     d60:	8f 81       	ldd	r24, Y+7	; 0x07
     d62:	98 85       	ldd	r25, Y+8	; 0x08
     d64:	fc 01       	movw	r30, r24
     d66:	31 83       	std	Z+1, r19	; 0x01
     d68:	20 83       	st	Z, r18
     d6a:	8f 81       	ldd	r24, Y+7	; 0x07
     d6c:	98 85       	ldd	r25, Y+8	; 0x08
     d6e:	29 85       	ldd	r18, Y+9	; 0x09
     d70:	fc 01       	movw	r30, r24
     d72:	23 8f       	std	Z+27, r18	; 0x1b
     d74:	8f 81       	ldd	r24, Y+7	; 0x07
     d76:	98 85       	ldd	r25, Y+8	; 0x08
     d78:	2a 85       	ldd	r18, Y+10	; 0x0a
     d7a:	fc 01       	movw	r30, r24
     d7c:	24 8f       	std	Z+28, r18	; 0x1c
     d7e:	8f 81       	ldd	r24, Y+7	; 0x07
     d80:	98 85       	ldd	r25, Y+8	; 0x08
     d82:	61 e0       	ldi	r22, 0x01	; 1
     d84:	19 df       	rcall	.-462    	; 0xbb8 <xQueueGenericReset>
     d86:	8f 81       	ldd	r24, Y+7	; 0x07
     d88:	98 85       	ldd	r25, Y+8	; 0x08
     d8a:	9c 83       	std	Y+4, r25	; 0x04
     d8c:	8b 83       	std	Y+3, r24	; 0x03
     d8e:	8b 81       	ldd	r24, Y+3	; 0x03
     d90:	9c 81       	ldd	r25, Y+4	; 0x04
     d92:	2b 96       	adiw	r28, 0x0b	; 11
     d94:	0f b6       	in	r0, 0x3f	; 63
     d96:	f8 94       	cli
     d98:	de bf       	out	0x3e, r29	; 62
     d9a:	0f be       	out	0x3f, r0	; 63
     d9c:	cd bf       	out	0x3d, r28	; 61
     d9e:	df 91       	pop	r29
     da0:	cf 91       	pop	r28
     da2:	08 95       	ret

00000da4 <xQueueGenericSend>:
     da4:	cf 93       	push	r28
     da6:	df 93       	push	r29
     da8:	cd b7       	in	r28, 0x3d	; 61
     daa:	de b7       	in	r29, 0x3e	; 62
     dac:	2e 97       	sbiw	r28, 0x0e	; 14
     dae:	0f b6       	in	r0, 0x3f	; 63
     db0:	f8 94       	cli
     db2:	de bf       	out	0x3e, r29	; 62
     db4:	0f be       	out	0x3f, r0	; 63
     db6:	cd bf       	out	0x3d, r28	; 61
     db8:	99 87       	std	Y+9, r25	; 0x09
     dba:	88 87       	std	Y+8, r24	; 0x08
     dbc:	7b 87       	std	Y+11, r23	; 0x0b
     dbe:	6a 87       	std	Y+10, r22	; 0x0a
     dc0:	5d 87       	std	Y+13, r21	; 0x0d
     dc2:	4c 87       	std	Y+12, r20	; 0x0c
     dc4:	2e 87       	std	Y+14, r18	; 0x0e
     dc6:	19 82       	std	Y+1, r1	; 0x01
     dc8:	88 85       	ldd	r24, Y+8	; 0x08
     dca:	99 85       	ldd	r25, Y+9	; 0x09
     dcc:	9b 83       	std	Y+3, r25	; 0x03
     dce:	8a 83       	std	Y+2, r24	; 0x02
     dd0:	0f b6       	in	r0, 0x3f	; 63
     dd2:	f8 94       	cli
     dd4:	0f 92       	push	r0
     dd6:	8a 81       	ldd	r24, Y+2	; 0x02
     dd8:	9b 81       	ldd	r25, Y+3	; 0x03
     dda:	fc 01       	movw	r30, r24
     ddc:	22 8d       	ldd	r18, Z+26	; 0x1a
     dde:	8a 81       	ldd	r24, Y+2	; 0x02
     de0:	9b 81       	ldd	r25, Y+3	; 0x03
     de2:	fc 01       	movw	r30, r24
     de4:	83 8d       	ldd	r24, Z+27	; 0x1b
     de6:	28 17       	cp	r18, r24
     de8:	18 f0       	brcs	.+6      	; 0xdf0 <xQueueGenericSend+0x4c>
     dea:	8e 85       	ldd	r24, Y+14	; 0x0e
     dec:	82 30       	cpi	r24, 0x02	; 2
     dee:	f1 f4       	brne	.+60     	; 0xe2c <xQueueGenericSend+0x88>
     df0:	2a 85       	ldd	r18, Y+10	; 0x0a
     df2:	3b 85       	ldd	r19, Y+11	; 0x0b
     df4:	8a 81       	ldd	r24, Y+2	; 0x02
     df6:	9b 81       	ldd	r25, Y+3	; 0x03
     df8:	4e 85       	ldd	r20, Y+14	; 0x0e
     dfa:	b9 01       	movw	r22, r18
     dfc:	f0 d1       	rcall	.+992    	; 0x11de <prvCopyDataToQueue>
     dfe:	8c 83       	std	Y+4, r24	; 0x04
     e00:	8a 81       	ldd	r24, Y+2	; 0x02
     e02:	9b 81       	ldd	r25, Y+3	; 0x03
     e04:	fc 01       	movw	r30, r24
     e06:	81 89       	ldd	r24, Z+17	; 0x11
     e08:	88 23       	and	r24, r24
     e0a:	41 f0       	breq	.+16     	; 0xe1c <xQueueGenericSend+0x78>
     e0c:	8a 81       	ldd	r24, Y+2	; 0x02
     e0e:	9b 81       	ldd	r25, Y+3	; 0x03
     e10:	41 96       	adiw	r24, 0x11	; 17
     e12:	21 d7       	rcall	.+3650   	; 0x1c56 <xTaskRemoveFromEventList>
     e14:	81 30       	cpi	r24, 0x01	; 1
     e16:	31 f4       	brne	.+12     	; 0xe24 <xQueueGenericSend+0x80>
     e18:	f9 dc       	rcall	.-1550   	; 0x80c <vPortYield>
     e1a:	04 c0       	rjmp	.+8      	; 0xe24 <xQueueGenericSend+0x80>
     e1c:	8c 81       	ldd	r24, Y+4	; 0x04
     e1e:	88 23       	and	r24, r24
     e20:	09 f0       	breq	.+2      	; 0xe24 <xQueueGenericSend+0x80>
     e22:	f4 dc       	rcall	.-1560   	; 0x80c <vPortYield>
     e24:	0f 90       	pop	r0
     e26:	0f be       	out	0x3f, r0	; 63
     e28:	81 e0       	ldi	r24, 0x01	; 1
     e2a:	55 c0       	rjmp	.+170    	; 0xed6 <xQueueGenericSend+0x132>
     e2c:	8c 85       	ldd	r24, Y+12	; 0x0c
     e2e:	9d 85       	ldd	r25, Y+13	; 0x0d
     e30:	89 2b       	or	r24, r25
     e32:	21 f4       	brne	.+8      	; 0xe3c <xQueueGenericSend+0x98>
     e34:	0f 90       	pop	r0
     e36:	0f be       	out	0x3f, r0	; 63
     e38:	80 e0       	ldi	r24, 0x00	; 0
     e3a:	4d c0       	rjmp	.+154    	; 0xed6 <xQueueGenericSend+0x132>
     e3c:	89 81       	ldd	r24, Y+1	; 0x01
     e3e:	88 23       	and	r24, r24
     e40:	29 f4       	brne	.+10     	; 0xe4c <xQueueGenericSend+0xa8>
     e42:	ce 01       	movw	r24, r28
     e44:	05 96       	adiw	r24, 0x05	; 5
     e46:	74 d7       	rcall	.+3816   	; 0x1d30 <vTaskSetTimeOutState>
     e48:	81 e0       	ldi	r24, 0x01	; 1
     e4a:	89 83       	std	Y+1, r24	; 0x01
     e4c:	0f 90       	pop	r0
     e4e:	0f be       	out	0x3f, r0	; 63
     e50:	bc d4       	rcall	.+2424   	; 0x17ca <vTaskSuspendAll>
     e52:	0f b6       	in	r0, 0x3f	; 63
     e54:	f8 94       	cli
     e56:	0f 92       	push	r0
     e58:	8a 81       	ldd	r24, Y+2	; 0x02
     e5a:	9b 81       	ldd	r25, Y+3	; 0x03
     e5c:	fc 01       	movw	r30, r24
     e5e:	85 8d       	ldd	r24, Z+29	; 0x1d
     e60:	8f 3f       	cpi	r24, 0xFF	; 255
     e62:	21 f4       	brne	.+8      	; 0xe6c <xQueueGenericSend+0xc8>
     e64:	8a 81       	ldd	r24, Y+2	; 0x02
     e66:	9b 81       	ldd	r25, Y+3	; 0x03
     e68:	fc 01       	movw	r30, r24
     e6a:	15 8e       	std	Z+29, r1	; 0x1d
     e6c:	8a 81       	ldd	r24, Y+2	; 0x02
     e6e:	9b 81       	ldd	r25, Y+3	; 0x03
     e70:	fc 01       	movw	r30, r24
     e72:	86 8d       	ldd	r24, Z+30	; 0x1e
     e74:	8f 3f       	cpi	r24, 0xFF	; 255
     e76:	21 f4       	brne	.+8      	; 0xe80 <xQueueGenericSend+0xdc>
     e78:	8a 81       	ldd	r24, Y+2	; 0x02
     e7a:	9b 81       	ldd	r25, Y+3	; 0x03
     e7c:	fc 01       	movw	r30, r24
     e7e:	16 8e       	std	Z+30, r1	; 0x1e
     e80:	0f 90       	pop	r0
     e82:	0f be       	out	0x3f, r0	; 63
     e84:	9e 01       	movw	r18, r28
     e86:	24 5f       	subi	r18, 0xF4	; 244
     e88:	3f 4f       	sbci	r19, 0xFF	; 255
     e8a:	ce 01       	movw	r24, r28
     e8c:	05 96       	adiw	r24, 0x05	; 5
     e8e:	b9 01       	movw	r22, r18
     e90:	6b d7       	rcall	.+3798   	; 0x1d68 <xTaskCheckForTimeOut>
     e92:	88 23       	and	r24, r24
     e94:	c9 f4       	brne	.+50     	; 0xec8 <xQueueGenericSend+0x124>
     e96:	8a 81       	ldd	r24, Y+2	; 0x02
     e98:	9b 81       	ldd	r25, Y+3	; 0x03
     e9a:	2e d3       	rcall	.+1628   	; 0x14f8 <prvIsQueueFull>
     e9c:	88 23       	and	r24, r24
     e9e:	79 f0       	breq	.+30     	; 0xebe <xQueueGenericSend+0x11a>
     ea0:	2c 85       	ldd	r18, Y+12	; 0x0c
     ea2:	3d 85       	ldd	r19, Y+13	; 0x0d
     ea4:	8a 81       	ldd	r24, Y+2	; 0x02
     ea6:	9b 81       	ldd	r25, Y+3	; 0x03
     ea8:	08 96       	adiw	r24, 0x08	; 8
     eaa:	b9 01       	movw	r22, r18
     eac:	a1 d6       	rcall	.+3394   	; 0x1bf0 <vTaskPlaceOnEventList>
     eae:	8a 81       	ldd	r24, Y+2	; 0x02
     eb0:	9b 81       	ldd	r25, Y+3	; 0x03
     eb2:	a4 d2       	rcall	.+1352   	; 0x13fc <prvUnlockQueue>
     eb4:	96 d4       	rcall	.+2348   	; 0x17e2 <xTaskResumeAll>
     eb6:	88 23       	and	r24, r24
     eb8:	69 f4       	brne	.+26     	; 0xed4 <xQueueGenericSend+0x130>
     eba:	a8 dc       	rcall	.-1712   	; 0x80c <vPortYield>
     ebc:	0b c0       	rjmp	.+22     	; 0xed4 <xQueueGenericSend+0x130>
     ebe:	8a 81       	ldd	r24, Y+2	; 0x02
     ec0:	9b 81       	ldd	r25, Y+3	; 0x03
     ec2:	9c d2       	rcall	.+1336   	; 0x13fc <prvUnlockQueue>
     ec4:	8e d4       	rcall	.+2332   	; 0x17e2 <xTaskResumeAll>
     ec6:	84 cf       	rjmp	.-248    	; 0xdd0 <xQueueGenericSend+0x2c>
     ec8:	8a 81       	ldd	r24, Y+2	; 0x02
     eca:	9b 81       	ldd	r25, Y+3	; 0x03
     ecc:	97 d2       	rcall	.+1326   	; 0x13fc <prvUnlockQueue>
     ece:	89 d4       	rcall	.+2322   	; 0x17e2 <xTaskResumeAll>
     ed0:	80 e0       	ldi	r24, 0x00	; 0
     ed2:	01 c0       	rjmp	.+2      	; 0xed6 <xQueueGenericSend+0x132>
     ed4:	7d cf       	rjmp	.-262    	; 0xdd0 <xQueueGenericSend+0x2c>
     ed6:	2e 96       	adiw	r28, 0x0e	; 14
     ed8:	0f b6       	in	r0, 0x3f	; 63
     eda:	f8 94       	cli
     edc:	de bf       	out	0x3e, r29	; 62
     ede:	0f be       	out	0x3f, r0	; 63
     ee0:	cd bf       	out	0x3d, r28	; 61
     ee2:	df 91       	pop	r29
     ee4:	cf 91       	pop	r28
     ee6:	08 95       	ret

00000ee8 <xQueueGenericSendFromISR>:
     ee8:	cf 93       	push	r28
     eea:	df 93       	push	r29
     eec:	cd b7       	in	r28, 0x3d	; 61
     eee:	de b7       	in	r29, 0x3e	; 62
     ef0:	2b 97       	sbiw	r28, 0x0b	; 11
     ef2:	0f b6       	in	r0, 0x3f	; 63
     ef4:	f8 94       	cli
     ef6:	de bf       	out	0x3e, r29	; 62
     ef8:	0f be       	out	0x3f, r0	; 63
     efa:	cd bf       	out	0x3d, r28	; 61
     efc:	9e 83       	std	Y+6, r25	; 0x06
     efe:	8d 83       	std	Y+5, r24	; 0x05
     f00:	78 87       	std	Y+8, r23	; 0x08
     f02:	6f 83       	std	Y+7, r22	; 0x07
     f04:	5a 87       	std	Y+10, r21	; 0x0a
     f06:	49 87       	std	Y+9, r20	; 0x09
     f08:	2b 87       	std	Y+11, r18	; 0x0b
     f0a:	8d 81       	ldd	r24, Y+5	; 0x05
     f0c:	9e 81       	ldd	r25, Y+6	; 0x06
     f0e:	9b 83       	std	Y+3, r25	; 0x03
     f10:	8a 83       	std	Y+2, r24	; 0x02
     f12:	1c 82       	std	Y+4, r1	; 0x04
     f14:	8a 81       	ldd	r24, Y+2	; 0x02
     f16:	9b 81       	ldd	r25, Y+3	; 0x03
     f18:	fc 01       	movw	r30, r24
     f1a:	22 8d       	ldd	r18, Z+26	; 0x1a
     f1c:	8a 81       	ldd	r24, Y+2	; 0x02
     f1e:	9b 81       	ldd	r25, Y+3	; 0x03
     f20:	fc 01       	movw	r30, r24
     f22:	83 8d       	ldd	r24, Z+27	; 0x1b
     f24:	28 17       	cp	r18, r24
     f26:	18 f0       	brcs	.+6      	; 0xf2e <xQueueGenericSendFromISR+0x46>
     f28:	8b 85       	ldd	r24, Y+11	; 0x0b
     f2a:	82 30       	cpi	r24, 0x02	; 2
     f2c:	81 f5       	brne	.+96     	; 0xf8e <xQueueGenericSendFromISR+0xa6>
     f2e:	2f 81       	ldd	r18, Y+7	; 0x07
     f30:	38 85       	ldd	r19, Y+8	; 0x08
     f32:	8a 81       	ldd	r24, Y+2	; 0x02
     f34:	9b 81       	ldd	r25, Y+3	; 0x03
     f36:	4b 85       	ldd	r20, Y+11	; 0x0b
     f38:	b9 01       	movw	r22, r18
     f3a:	51 d1       	rcall	.+674    	; 0x11de <prvCopyDataToQueue>
     f3c:	8a 81       	ldd	r24, Y+2	; 0x02
     f3e:	9b 81       	ldd	r25, Y+3	; 0x03
     f40:	fc 01       	movw	r30, r24
     f42:	86 8d       	ldd	r24, Z+30	; 0x1e
     f44:	8f 3f       	cpi	r24, 0xFF	; 255
     f46:	b1 f4       	brne	.+44     	; 0xf74 <xQueueGenericSendFromISR+0x8c>
     f48:	8a 81       	ldd	r24, Y+2	; 0x02
     f4a:	9b 81       	ldd	r25, Y+3	; 0x03
     f4c:	fc 01       	movw	r30, r24
     f4e:	81 89       	ldd	r24, Z+17	; 0x11
     f50:	88 23       	and	r24, r24
     f52:	d1 f0       	breq	.+52     	; 0xf88 <xQueueGenericSendFromISR+0xa0>
     f54:	8a 81       	ldd	r24, Y+2	; 0x02
     f56:	9b 81       	ldd	r25, Y+3	; 0x03
     f58:	41 96       	adiw	r24, 0x11	; 17
     f5a:	7d d6       	rcall	.+3322   	; 0x1c56 <xTaskRemoveFromEventList>
     f5c:	88 23       	and	r24, r24
     f5e:	a1 f0       	breq	.+40     	; 0xf88 <xQueueGenericSendFromISR+0xa0>
     f60:	89 85       	ldd	r24, Y+9	; 0x09
     f62:	9a 85       	ldd	r25, Y+10	; 0x0a
     f64:	89 2b       	or	r24, r25
     f66:	81 f0       	breq	.+32     	; 0xf88 <xQueueGenericSendFromISR+0xa0>
     f68:	89 85       	ldd	r24, Y+9	; 0x09
     f6a:	9a 85       	ldd	r25, Y+10	; 0x0a
     f6c:	21 e0       	ldi	r18, 0x01	; 1
     f6e:	fc 01       	movw	r30, r24
     f70:	20 83       	st	Z, r18
     f72:	0a c0       	rjmp	.+20     	; 0xf88 <xQueueGenericSendFromISR+0xa0>
     f74:	8a 81       	ldd	r24, Y+2	; 0x02
     f76:	9b 81       	ldd	r25, Y+3	; 0x03
     f78:	fc 01       	movw	r30, r24
     f7a:	86 8d       	ldd	r24, Z+30	; 0x1e
     f7c:	8f 5f       	subi	r24, 0xFF	; 255
     f7e:	28 2f       	mov	r18, r24
     f80:	8a 81       	ldd	r24, Y+2	; 0x02
     f82:	9b 81       	ldd	r25, Y+3	; 0x03
     f84:	fc 01       	movw	r30, r24
     f86:	26 8f       	std	Z+30, r18	; 0x1e
     f88:	81 e0       	ldi	r24, 0x01	; 1
     f8a:	89 83       	std	Y+1, r24	; 0x01
     f8c:	01 c0       	rjmp	.+2      	; 0xf90 <xQueueGenericSendFromISR+0xa8>
     f8e:	19 82       	std	Y+1, r1	; 0x01
     f90:	89 81       	ldd	r24, Y+1	; 0x01
     f92:	2b 96       	adiw	r28, 0x0b	; 11
     f94:	0f b6       	in	r0, 0x3f	; 63
     f96:	f8 94       	cli
     f98:	de bf       	out	0x3e, r29	; 62
     f9a:	0f be       	out	0x3f, r0	; 63
     f9c:	cd bf       	out	0x3d, r28	; 61
     f9e:	df 91       	pop	r29
     fa0:	cf 91       	pop	r28
     fa2:	08 95       	ret

00000fa4 <xQueueGenericReceive>:
     fa4:	cf 93       	push	r28
     fa6:	df 93       	push	r29
     fa8:	cd b7       	in	r28, 0x3d	; 61
     faa:	de b7       	in	r29, 0x3e	; 62
     fac:	2f 97       	sbiw	r28, 0x0f	; 15
     fae:	0f b6       	in	r0, 0x3f	; 63
     fb0:	f8 94       	cli
     fb2:	de bf       	out	0x3e, r29	; 62
     fb4:	0f be       	out	0x3f, r0	; 63
     fb6:	cd bf       	out	0x3d, r28	; 61
     fb8:	9a 87       	std	Y+10, r25	; 0x0a
     fba:	89 87       	std	Y+9, r24	; 0x09
     fbc:	7c 87       	std	Y+12, r23	; 0x0c
     fbe:	6b 87       	std	Y+11, r22	; 0x0b
     fc0:	5e 87       	std	Y+14, r21	; 0x0e
     fc2:	4d 87       	std	Y+13, r20	; 0x0d
     fc4:	2f 87       	std	Y+15, r18	; 0x0f
     fc6:	19 82       	std	Y+1, r1	; 0x01
     fc8:	89 85       	ldd	r24, Y+9	; 0x09
     fca:	9a 85       	ldd	r25, Y+10	; 0x0a
     fcc:	9b 83       	std	Y+3, r25	; 0x03
     fce:	8a 83       	std	Y+2, r24	; 0x02
     fd0:	0f b6       	in	r0, 0x3f	; 63
     fd2:	f8 94       	cli
     fd4:	0f 92       	push	r0
     fd6:	8a 81       	ldd	r24, Y+2	; 0x02
     fd8:	9b 81       	ldd	r25, Y+3	; 0x03
     fda:	fc 01       	movw	r30, r24
     fdc:	82 8d       	ldd	r24, Z+26	; 0x1a
     fde:	88 23       	and	r24, r24
     fe0:	09 f4       	brne	.+2      	; 0xfe4 <xQueueGenericReceive+0x40>
     fe2:	40 c0       	rjmp	.+128    	; 0x1064 <xQueueGenericReceive+0xc0>
     fe4:	8a 81       	ldd	r24, Y+2	; 0x02
     fe6:	9b 81       	ldd	r25, Y+3	; 0x03
     fe8:	fc 01       	movw	r30, r24
     fea:	86 81       	ldd	r24, Z+6	; 0x06
     fec:	97 81       	ldd	r25, Z+7	; 0x07
     fee:	9d 83       	std	Y+5, r25	; 0x05
     ff0:	8c 83       	std	Y+4, r24	; 0x04
     ff2:	2b 85       	ldd	r18, Y+11	; 0x0b
     ff4:	3c 85       	ldd	r19, Y+12	; 0x0c
     ff6:	8a 81       	ldd	r24, Y+2	; 0x02
     ff8:	9b 81       	ldd	r25, Y+3	; 0x03
     ffa:	b9 01       	movw	r22, r18
     ffc:	af d1       	rcall	.+862    	; 0x135c <prvCopyDataFromQueue>
     ffe:	8f 85       	ldd	r24, Y+15	; 0x0f
    1000:	88 23       	and	r24, r24
    1002:	c1 f4       	brne	.+48     	; 0x1034 <xQueueGenericReceive+0x90>
    1004:	8a 81       	ldd	r24, Y+2	; 0x02
    1006:	9b 81       	ldd	r25, Y+3	; 0x03
    1008:	fc 01       	movw	r30, r24
    100a:	82 8d       	ldd	r24, Z+26	; 0x1a
    100c:	2f ef       	ldi	r18, 0xFF	; 255
    100e:	28 0f       	add	r18, r24
    1010:	8a 81       	ldd	r24, Y+2	; 0x02
    1012:	9b 81       	ldd	r25, Y+3	; 0x03
    1014:	fc 01       	movw	r30, r24
    1016:	22 8f       	std	Z+26, r18	; 0x1a
    1018:	8a 81       	ldd	r24, Y+2	; 0x02
    101a:	9b 81       	ldd	r25, Y+3	; 0x03
    101c:	fc 01       	movw	r30, r24
    101e:	80 85       	ldd	r24, Z+8	; 0x08
    1020:	88 23       	and	r24, r24
    1022:	e1 f0       	breq	.+56     	; 0x105c <xQueueGenericReceive+0xb8>
    1024:	8a 81       	ldd	r24, Y+2	; 0x02
    1026:	9b 81       	ldd	r25, Y+3	; 0x03
    1028:	08 96       	adiw	r24, 0x08	; 8
    102a:	15 d6       	rcall	.+3114   	; 0x1c56 <xTaskRemoveFromEventList>
    102c:	81 30       	cpi	r24, 0x01	; 1
    102e:	b1 f4       	brne	.+44     	; 0x105c <xQueueGenericReceive+0xb8>
    1030:	ed db       	rcall	.-2086   	; 0x80c <vPortYield>
    1032:	14 c0       	rjmp	.+40     	; 0x105c <xQueueGenericReceive+0xb8>
    1034:	8a 81       	ldd	r24, Y+2	; 0x02
    1036:	9b 81       	ldd	r25, Y+3	; 0x03
    1038:	2c 81       	ldd	r18, Y+4	; 0x04
    103a:	3d 81       	ldd	r19, Y+5	; 0x05
    103c:	fc 01       	movw	r30, r24
    103e:	37 83       	std	Z+7, r19	; 0x07
    1040:	26 83       	std	Z+6, r18	; 0x06
    1042:	8a 81       	ldd	r24, Y+2	; 0x02
    1044:	9b 81       	ldd	r25, Y+3	; 0x03
    1046:	fc 01       	movw	r30, r24
    1048:	81 89       	ldd	r24, Z+17	; 0x11
    104a:	88 23       	and	r24, r24
    104c:	39 f0       	breq	.+14     	; 0x105c <xQueueGenericReceive+0xb8>
    104e:	8a 81       	ldd	r24, Y+2	; 0x02
    1050:	9b 81       	ldd	r25, Y+3	; 0x03
    1052:	41 96       	adiw	r24, 0x11	; 17
    1054:	00 d6       	rcall	.+3072   	; 0x1c56 <xTaskRemoveFromEventList>
    1056:	88 23       	and	r24, r24
    1058:	09 f0       	breq	.+2      	; 0x105c <xQueueGenericReceive+0xb8>
    105a:	d8 db       	rcall	.-2128   	; 0x80c <vPortYield>
    105c:	0f 90       	pop	r0
    105e:	0f be       	out	0x3f, r0	; 63
    1060:	81 e0       	ldi	r24, 0x01	; 1
    1062:	55 c0       	rjmp	.+170    	; 0x110e <xQueueGenericReceive+0x16a>
    1064:	8d 85       	ldd	r24, Y+13	; 0x0d
    1066:	9e 85       	ldd	r25, Y+14	; 0x0e
    1068:	89 2b       	or	r24, r25
    106a:	21 f4       	brne	.+8      	; 0x1074 <xQueueGenericReceive+0xd0>
    106c:	0f 90       	pop	r0
    106e:	0f be       	out	0x3f, r0	; 63
    1070:	80 e0       	ldi	r24, 0x00	; 0
    1072:	4d c0       	rjmp	.+154    	; 0x110e <xQueueGenericReceive+0x16a>
    1074:	89 81       	ldd	r24, Y+1	; 0x01
    1076:	88 23       	and	r24, r24
    1078:	29 f4       	brne	.+10     	; 0x1084 <xQueueGenericReceive+0xe0>
    107a:	ce 01       	movw	r24, r28
    107c:	06 96       	adiw	r24, 0x06	; 6
    107e:	58 d6       	rcall	.+3248   	; 0x1d30 <vTaskSetTimeOutState>
    1080:	81 e0       	ldi	r24, 0x01	; 1
    1082:	89 83       	std	Y+1, r24	; 0x01
    1084:	0f 90       	pop	r0
    1086:	0f be       	out	0x3f, r0	; 63
    1088:	a0 d3       	rcall	.+1856   	; 0x17ca <vTaskSuspendAll>
    108a:	0f b6       	in	r0, 0x3f	; 63
    108c:	f8 94       	cli
    108e:	0f 92       	push	r0
    1090:	8a 81       	ldd	r24, Y+2	; 0x02
    1092:	9b 81       	ldd	r25, Y+3	; 0x03
    1094:	fc 01       	movw	r30, r24
    1096:	85 8d       	ldd	r24, Z+29	; 0x1d
    1098:	8f 3f       	cpi	r24, 0xFF	; 255
    109a:	21 f4       	brne	.+8      	; 0x10a4 <xQueueGenericReceive+0x100>
    109c:	8a 81       	ldd	r24, Y+2	; 0x02
    109e:	9b 81       	ldd	r25, Y+3	; 0x03
    10a0:	fc 01       	movw	r30, r24
    10a2:	15 8e       	std	Z+29, r1	; 0x1d
    10a4:	8a 81       	ldd	r24, Y+2	; 0x02
    10a6:	9b 81       	ldd	r25, Y+3	; 0x03
    10a8:	fc 01       	movw	r30, r24
    10aa:	86 8d       	ldd	r24, Z+30	; 0x1e
    10ac:	8f 3f       	cpi	r24, 0xFF	; 255
    10ae:	21 f4       	brne	.+8      	; 0x10b8 <xQueueGenericReceive+0x114>
    10b0:	8a 81       	ldd	r24, Y+2	; 0x02
    10b2:	9b 81       	ldd	r25, Y+3	; 0x03
    10b4:	fc 01       	movw	r30, r24
    10b6:	16 8e       	std	Z+30, r1	; 0x1e
    10b8:	0f 90       	pop	r0
    10ba:	0f be       	out	0x3f, r0	; 63
    10bc:	9e 01       	movw	r18, r28
    10be:	23 5f       	subi	r18, 0xF3	; 243
    10c0:	3f 4f       	sbci	r19, 0xFF	; 255
    10c2:	ce 01       	movw	r24, r28
    10c4:	06 96       	adiw	r24, 0x06	; 6
    10c6:	b9 01       	movw	r22, r18
    10c8:	4f d6       	rcall	.+3230   	; 0x1d68 <xTaskCheckForTimeOut>
    10ca:	88 23       	and	r24, r24
    10cc:	c9 f4       	brne	.+50     	; 0x1100 <xQueueGenericReceive+0x15c>
    10ce:	8a 81       	ldd	r24, Y+2	; 0x02
    10d0:	9b 81       	ldd	r25, Y+3	; 0x03
    10d2:	f5 d1       	rcall	.+1002   	; 0x14be <prvIsQueueEmpty>
    10d4:	88 23       	and	r24, r24
    10d6:	79 f0       	breq	.+30     	; 0x10f6 <xQueueGenericReceive+0x152>
    10d8:	2d 85       	ldd	r18, Y+13	; 0x0d
    10da:	3e 85       	ldd	r19, Y+14	; 0x0e
    10dc:	8a 81       	ldd	r24, Y+2	; 0x02
    10de:	9b 81       	ldd	r25, Y+3	; 0x03
    10e0:	41 96       	adiw	r24, 0x11	; 17
    10e2:	b9 01       	movw	r22, r18
    10e4:	85 d5       	rcall	.+2826   	; 0x1bf0 <vTaskPlaceOnEventList>
    10e6:	8a 81       	ldd	r24, Y+2	; 0x02
    10e8:	9b 81       	ldd	r25, Y+3	; 0x03
    10ea:	88 d1       	rcall	.+784    	; 0x13fc <prvUnlockQueue>
    10ec:	7a d3       	rcall	.+1780   	; 0x17e2 <xTaskResumeAll>
    10ee:	88 23       	and	r24, r24
    10f0:	69 f4       	brne	.+26     	; 0x110c <xQueueGenericReceive+0x168>
    10f2:	8c db       	rcall	.-2280   	; 0x80c <vPortYield>
    10f4:	0b c0       	rjmp	.+22     	; 0x110c <xQueueGenericReceive+0x168>
    10f6:	8a 81       	ldd	r24, Y+2	; 0x02
    10f8:	9b 81       	ldd	r25, Y+3	; 0x03
    10fa:	80 d1       	rcall	.+768    	; 0x13fc <prvUnlockQueue>
    10fc:	72 d3       	rcall	.+1764   	; 0x17e2 <xTaskResumeAll>
    10fe:	68 cf       	rjmp	.-304    	; 0xfd0 <xQueueGenericReceive+0x2c>
    1100:	8a 81       	ldd	r24, Y+2	; 0x02
    1102:	9b 81       	ldd	r25, Y+3	; 0x03
    1104:	7b d1       	rcall	.+758    	; 0x13fc <prvUnlockQueue>
    1106:	6d d3       	rcall	.+1754   	; 0x17e2 <xTaskResumeAll>
    1108:	80 e0       	ldi	r24, 0x00	; 0
    110a:	01 c0       	rjmp	.+2      	; 0x110e <xQueueGenericReceive+0x16a>
    110c:	61 cf       	rjmp	.-318    	; 0xfd0 <xQueueGenericReceive+0x2c>
    110e:	2f 96       	adiw	r28, 0x0f	; 15
    1110:	0f b6       	in	r0, 0x3f	; 63
    1112:	f8 94       	cli
    1114:	de bf       	out	0x3e, r29	; 62
    1116:	0f be       	out	0x3f, r0	; 63
    1118:	cd bf       	out	0x3d, r28	; 61
    111a:	df 91       	pop	r29
    111c:	cf 91       	pop	r28
    111e:	08 95       	ret

00001120 <xQueueReceiveFromISR>:
    1120:	cf 93       	push	r28
    1122:	df 93       	push	r29
    1124:	cd b7       	in	r28, 0x3d	; 61
    1126:	de b7       	in	r29, 0x3e	; 62
    1128:	2a 97       	sbiw	r28, 0x0a	; 10
    112a:	0f b6       	in	r0, 0x3f	; 63
    112c:	f8 94       	cli
    112e:	de bf       	out	0x3e, r29	; 62
    1130:	0f be       	out	0x3f, r0	; 63
    1132:	cd bf       	out	0x3d, r28	; 61
    1134:	9e 83       	std	Y+6, r25	; 0x06
    1136:	8d 83       	std	Y+5, r24	; 0x05
    1138:	78 87       	std	Y+8, r23	; 0x08
    113a:	6f 83       	std	Y+7, r22	; 0x07
    113c:	5a 87       	std	Y+10, r21	; 0x0a
    113e:	49 87       	std	Y+9, r20	; 0x09
    1140:	8d 81       	ldd	r24, Y+5	; 0x05
    1142:	9e 81       	ldd	r25, Y+6	; 0x06
    1144:	9b 83       	std	Y+3, r25	; 0x03
    1146:	8a 83       	std	Y+2, r24	; 0x02
    1148:	1c 82       	std	Y+4, r1	; 0x04
    114a:	8a 81       	ldd	r24, Y+2	; 0x02
    114c:	9b 81       	ldd	r25, Y+3	; 0x03
    114e:	fc 01       	movw	r30, r24
    1150:	82 8d       	ldd	r24, Z+26	; 0x1a
    1152:	88 23       	and	r24, r24
    1154:	c9 f1       	breq	.+114    	; 0x11c8 <xQueueReceiveFromISR+0xa8>
    1156:	2f 81       	ldd	r18, Y+7	; 0x07
    1158:	38 85       	ldd	r19, Y+8	; 0x08
    115a:	8a 81       	ldd	r24, Y+2	; 0x02
    115c:	9b 81       	ldd	r25, Y+3	; 0x03
    115e:	b9 01       	movw	r22, r18
    1160:	fd d0       	rcall	.+506    	; 0x135c <prvCopyDataFromQueue>
    1162:	8a 81       	ldd	r24, Y+2	; 0x02
    1164:	9b 81       	ldd	r25, Y+3	; 0x03
    1166:	fc 01       	movw	r30, r24
    1168:	82 8d       	ldd	r24, Z+26	; 0x1a
    116a:	2f ef       	ldi	r18, 0xFF	; 255
    116c:	28 0f       	add	r18, r24
    116e:	8a 81       	ldd	r24, Y+2	; 0x02
    1170:	9b 81       	ldd	r25, Y+3	; 0x03
    1172:	fc 01       	movw	r30, r24
    1174:	22 8f       	std	Z+26, r18	; 0x1a
    1176:	8a 81       	ldd	r24, Y+2	; 0x02
    1178:	9b 81       	ldd	r25, Y+3	; 0x03
    117a:	fc 01       	movw	r30, r24
    117c:	85 8d       	ldd	r24, Z+29	; 0x1d
    117e:	8f 3f       	cpi	r24, 0xFF	; 255
    1180:	b1 f4       	brne	.+44     	; 0x11ae <xQueueReceiveFromISR+0x8e>
    1182:	8a 81       	ldd	r24, Y+2	; 0x02
    1184:	9b 81       	ldd	r25, Y+3	; 0x03
    1186:	fc 01       	movw	r30, r24
    1188:	80 85       	ldd	r24, Z+8	; 0x08
    118a:	88 23       	and	r24, r24
    118c:	d1 f0       	breq	.+52     	; 0x11c2 <xQueueReceiveFromISR+0xa2>
    118e:	8a 81       	ldd	r24, Y+2	; 0x02
    1190:	9b 81       	ldd	r25, Y+3	; 0x03
    1192:	08 96       	adiw	r24, 0x08	; 8
    1194:	60 d5       	rcall	.+2752   	; 0x1c56 <xTaskRemoveFromEventList>
    1196:	88 23       	and	r24, r24
    1198:	a1 f0       	breq	.+40     	; 0x11c2 <xQueueReceiveFromISR+0xa2>
    119a:	89 85       	ldd	r24, Y+9	; 0x09
    119c:	9a 85       	ldd	r25, Y+10	; 0x0a
    119e:	89 2b       	or	r24, r25
    11a0:	81 f0       	breq	.+32     	; 0x11c2 <xQueueReceiveFromISR+0xa2>
    11a2:	89 85       	ldd	r24, Y+9	; 0x09
    11a4:	9a 85       	ldd	r25, Y+10	; 0x0a
    11a6:	21 e0       	ldi	r18, 0x01	; 1
    11a8:	fc 01       	movw	r30, r24
    11aa:	20 83       	st	Z, r18
    11ac:	0a c0       	rjmp	.+20     	; 0x11c2 <xQueueReceiveFromISR+0xa2>
    11ae:	8a 81       	ldd	r24, Y+2	; 0x02
    11b0:	9b 81       	ldd	r25, Y+3	; 0x03
    11b2:	fc 01       	movw	r30, r24
    11b4:	85 8d       	ldd	r24, Z+29	; 0x1d
    11b6:	8f 5f       	subi	r24, 0xFF	; 255
    11b8:	28 2f       	mov	r18, r24
    11ba:	8a 81       	ldd	r24, Y+2	; 0x02
    11bc:	9b 81       	ldd	r25, Y+3	; 0x03
    11be:	fc 01       	movw	r30, r24
    11c0:	25 8f       	std	Z+29, r18	; 0x1d
    11c2:	81 e0       	ldi	r24, 0x01	; 1
    11c4:	89 83       	std	Y+1, r24	; 0x01
    11c6:	01 c0       	rjmp	.+2      	; 0x11ca <xQueueReceiveFromISR+0xaa>
    11c8:	19 82       	std	Y+1, r1	; 0x01
    11ca:	89 81       	ldd	r24, Y+1	; 0x01
    11cc:	2a 96       	adiw	r28, 0x0a	; 10
    11ce:	0f b6       	in	r0, 0x3f	; 63
    11d0:	f8 94       	cli
    11d2:	de bf       	out	0x3e, r29	; 62
    11d4:	0f be       	out	0x3f, r0	; 63
    11d6:	cd bf       	out	0x3d, r28	; 61
    11d8:	df 91       	pop	r29
    11da:	cf 91       	pop	r28
    11dc:	08 95       	ret

000011de <prvCopyDataToQueue>:
    11de:	cf 93       	push	r28
    11e0:	df 93       	push	r29
    11e2:	00 d0       	rcall	.+0      	; 0x11e4 <prvCopyDataToQueue+0x6>
    11e4:	00 d0       	rcall	.+0      	; 0x11e6 <prvCopyDataToQueue+0x8>
    11e6:	cd b7       	in	r28, 0x3d	; 61
    11e8:	de b7       	in	r29, 0x3e	; 62
    11ea:	9b 83       	std	Y+3, r25	; 0x03
    11ec:	8a 83       	std	Y+2, r24	; 0x02
    11ee:	7d 83       	std	Y+5, r23	; 0x05
    11f0:	6c 83       	std	Y+4, r22	; 0x04
    11f2:	4e 83       	std	Y+6, r20	; 0x06
    11f4:	19 82       	std	Y+1, r1	; 0x01
    11f6:	8a 81       	ldd	r24, Y+2	; 0x02
    11f8:	9b 81       	ldd	r25, Y+3	; 0x03
    11fa:	fc 01       	movw	r30, r24
    11fc:	84 8d       	ldd	r24, Z+28	; 0x1c
    11fe:	88 23       	and	r24, r24
    1200:	09 f4       	brne	.+2      	; 0x1204 <prvCopyDataToQueue+0x26>
    1202:	98 c0       	rjmp	.+304    	; 0x1334 <prvCopyDataToQueue+0x156>
    1204:	8e 81       	ldd	r24, Y+6	; 0x06
    1206:	88 23       	and	r24, r24
    1208:	d9 f5       	brne	.+118    	; 0x1280 <prvCopyDataToQueue+0xa2>
    120a:	8a 81       	ldd	r24, Y+2	; 0x02
    120c:	9b 81       	ldd	r25, Y+3	; 0x03
    120e:	fc 01       	movw	r30, r24
    1210:	84 8d       	ldd	r24, Z+28	; 0x1c
    1212:	48 2f       	mov	r20, r24
    1214:	50 e0       	ldi	r21, 0x00	; 0
    1216:	8a 81       	ldd	r24, Y+2	; 0x02
    1218:	9b 81       	ldd	r25, Y+3	; 0x03
    121a:	fc 01       	movw	r30, r24
    121c:	84 81       	ldd	r24, Z+4	; 0x04
    121e:	95 81       	ldd	r25, Z+5	; 0x05
    1220:	2c 81       	ldd	r18, Y+4	; 0x04
    1222:	3d 81       	ldd	r19, Y+5	; 0x05
    1224:	b9 01       	movw	r22, r18
    1226:	0e 94 be 12 	call	0x257c	; 0x257c <memcpy>
    122a:	8a 81       	ldd	r24, Y+2	; 0x02
    122c:	9b 81       	ldd	r25, Y+3	; 0x03
    122e:	fc 01       	movw	r30, r24
    1230:	24 81       	ldd	r18, Z+4	; 0x04
    1232:	35 81       	ldd	r19, Z+5	; 0x05
    1234:	8a 81       	ldd	r24, Y+2	; 0x02
    1236:	9b 81       	ldd	r25, Y+3	; 0x03
    1238:	fc 01       	movw	r30, r24
    123a:	84 8d       	ldd	r24, Z+28	; 0x1c
    123c:	88 2f       	mov	r24, r24
    123e:	90 e0       	ldi	r25, 0x00	; 0
    1240:	28 0f       	add	r18, r24
    1242:	39 1f       	adc	r19, r25
    1244:	8a 81       	ldd	r24, Y+2	; 0x02
    1246:	9b 81       	ldd	r25, Y+3	; 0x03
    1248:	fc 01       	movw	r30, r24
    124a:	35 83       	std	Z+5, r19	; 0x05
    124c:	24 83       	std	Z+4, r18	; 0x04
    124e:	8a 81       	ldd	r24, Y+2	; 0x02
    1250:	9b 81       	ldd	r25, Y+3	; 0x03
    1252:	fc 01       	movw	r30, r24
    1254:	24 81       	ldd	r18, Z+4	; 0x04
    1256:	35 81       	ldd	r19, Z+5	; 0x05
    1258:	8a 81       	ldd	r24, Y+2	; 0x02
    125a:	9b 81       	ldd	r25, Y+3	; 0x03
    125c:	fc 01       	movw	r30, r24
    125e:	82 81       	ldd	r24, Z+2	; 0x02
    1260:	93 81       	ldd	r25, Z+3	; 0x03
    1262:	28 17       	cp	r18, r24
    1264:	39 07       	cpc	r19, r25
    1266:	08 f4       	brcc	.+2      	; 0x126a <prvCopyDataToQueue+0x8c>
    1268:	65 c0       	rjmp	.+202    	; 0x1334 <prvCopyDataToQueue+0x156>
    126a:	8a 81       	ldd	r24, Y+2	; 0x02
    126c:	9b 81       	ldd	r25, Y+3	; 0x03
    126e:	fc 01       	movw	r30, r24
    1270:	20 81       	ld	r18, Z
    1272:	31 81       	ldd	r19, Z+1	; 0x01
    1274:	8a 81       	ldd	r24, Y+2	; 0x02
    1276:	9b 81       	ldd	r25, Y+3	; 0x03
    1278:	fc 01       	movw	r30, r24
    127a:	35 83       	std	Z+5, r19	; 0x05
    127c:	24 83       	std	Z+4, r18	; 0x04
    127e:	5a c0       	rjmp	.+180    	; 0x1334 <prvCopyDataToQueue+0x156>
    1280:	8a 81       	ldd	r24, Y+2	; 0x02
    1282:	9b 81       	ldd	r25, Y+3	; 0x03
    1284:	fc 01       	movw	r30, r24
    1286:	84 8d       	ldd	r24, Z+28	; 0x1c
    1288:	48 2f       	mov	r20, r24
    128a:	50 e0       	ldi	r21, 0x00	; 0
    128c:	8a 81       	ldd	r24, Y+2	; 0x02
    128e:	9b 81       	ldd	r25, Y+3	; 0x03
    1290:	fc 01       	movw	r30, r24
    1292:	86 81       	ldd	r24, Z+6	; 0x06
    1294:	97 81       	ldd	r25, Z+7	; 0x07
    1296:	2c 81       	ldd	r18, Y+4	; 0x04
    1298:	3d 81       	ldd	r19, Y+5	; 0x05
    129a:	b9 01       	movw	r22, r18
    129c:	0e 94 be 12 	call	0x257c	; 0x257c <memcpy>
    12a0:	8a 81       	ldd	r24, Y+2	; 0x02
    12a2:	9b 81       	ldd	r25, Y+3	; 0x03
    12a4:	fc 01       	movw	r30, r24
    12a6:	26 81       	ldd	r18, Z+6	; 0x06
    12a8:	37 81       	ldd	r19, Z+7	; 0x07
    12aa:	8a 81       	ldd	r24, Y+2	; 0x02
    12ac:	9b 81       	ldd	r25, Y+3	; 0x03
    12ae:	fc 01       	movw	r30, r24
    12b0:	84 8d       	ldd	r24, Z+28	; 0x1c
    12b2:	88 2f       	mov	r24, r24
    12b4:	90 e0       	ldi	r25, 0x00	; 0
    12b6:	91 95       	neg	r25
    12b8:	81 95       	neg	r24
    12ba:	91 09       	sbc	r25, r1
    12bc:	28 0f       	add	r18, r24
    12be:	39 1f       	adc	r19, r25
    12c0:	8a 81       	ldd	r24, Y+2	; 0x02
    12c2:	9b 81       	ldd	r25, Y+3	; 0x03
    12c4:	fc 01       	movw	r30, r24
    12c6:	37 83       	std	Z+7, r19	; 0x07
    12c8:	26 83       	std	Z+6, r18	; 0x06
    12ca:	8a 81       	ldd	r24, Y+2	; 0x02
    12cc:	9b 81       	ldd	r25, Y+3	; 0x03
    12ce:	fc 01       	movw	r30, r24
    12d0:	26 81       	ldd	r18, Z+6	; 0x06
    12d2:	37 81       	ldd	r19, Z+7	; 0x07
    12d4:	8a 81       	ldd	r24, Y+2	; 0x02
    12d6:	9b 81       	ldd	r25, Y+3	; 0x03
    12d8:	fc 01       	movw	r30, r24
    12da:	80 81       	ld	r24, Z
    12dc:	91 81       	ldd	r25, Z+1	; 0x01
    12de:	28 17       	cp	r18, r24
    12e0:	39 07       	cpc	r19, r25
    12e2:	a8 f4       	brcc	.+42     	; 0x130e <prvCopyDataToQueue+0x130>
    12e4:	8a 81       	ldd	r24, Y+2	; 0x02
    12e6:	9b 81       	ldd	r25, Y+3	; 0x03
    12e8:	fc 01       	movw	r30, r24
    12ea:	22 81       	ldd	r18, Z+2	; 0x02
    12ec:	33 81       	ldd	r19, Z+3	; 0x03
    12ee:	8a 81       	ldd	r24, Y+2	; 0x02
    12f0:	9b 81       	ldd	r25, Y+3	; 0x03
    12f2:	fc 01       	movw	r30, r24
    12f4:	84 8d       	ldd	r24, Z+28	; 0x1c
    12f6:	88 2f       	mov	r24, r24
    12f8:	90 e0       	ldi	r25, 0x00	; 0
    12fa:	91 95       	neg	r25
    12fc:	81 95       	neg	r24
    12fe:	91 09       	sbc	r25, r1
    1300:	28 0f       	add	r18, r24
    1302:	39 1f       	adc	r19, r25
    1304:	8a 81       	ldd	r24, Y+2	; 0x02
    1306:	9b 81       	ldd	r25, Y+3	; 0x03
    1308:	fc 01       	movw	r30, r24
    130a:	37 83       	std	Z+7, r19	; 0x07
    130c:	26 83       	std	Z+6, r18	; 0x06
    130e:	8e 81       	ldd	r24, Y+6	; 0x06
    1310:	82 30       	cpi	r24, 0x02	; 2
    1312:	81 f4       	brne	.+32     	; 0x1334 <prvCopyDataToQueue+0x156>
    1314:	8a 81       	ldd	r24, Y+2	; 0x02
    1316:	9b 81       	ldd	r25, Y+3	; 0x03
    1318:	fc 01       	movw	r30, r24
    131a:	82 8d       	ldd	r24, Z+26	; 0x1a
    131c:	88 23       	and	r24, r24
    131e:	51 f0       	breq	.+20     	; 0x1334 <prvCopyDataToQueue+0x156>
    1320:	8a 81       	ldd	r24, Y+2	; 0x02
    1322:	9b 81       	ldd	r25, Y+3	; 0x03
    1324:	fc 01       	movw	r30, r24
    1326:	82 8d       	ldd	r24, Z+26	; 0x1a
    1328:	2f ef       	ldi	r18, 0xFF	; 255
    132a:	28 0f       	add	r18, r24
    132c:	8a 81       	ldd	r24, Y+2	; 0x02
    132e:	9b 81       	ldd	r25, Y+3	; 0x03
    1330:	fc 01       	movw	r30, r24
    1332:	22 8f       	std	Z+26, r18	; 0x1a
    1334:	8a 81       	ldd	r24, Y+2	; 0x02
    1336:	9b 81       	ldd	r25, Y+3	; 0x03
    1338:	fc 01       	movw	r30, r24
    133a:	82 8d       	ldd	r24, Z+26	; 0x1a
    133c:	21 e0       	ldi	r18, 0x01	; 1
    133e:	28 0f       	add	r18, r24
    1340:	8a 81       	ldd	r24, Y+2	; 0x02
    1342:	9b 81       	ldd	r25, Y+3	; 0x03
    1344:	fc 01       	movw	r30, r24
    1346:	22 8f       	std	Z+26, r18	; 0x1a
    1348:	89 81       	ldd	r24, Y+1	; 0x01
    134a:	26 96       	adiw	r28, 0x06	; 6
    134c:	0f b6       	in	r0, 0x3f	; 63
    134e:	f8 94       	cli
    1350:	de bf       	out	0x3e, r29	; 62
    1352:	0f be       	out	0x3f, r0	; 63
    1354:	cd bf       	out	0x3d, r28	; 61
    1356:	df 91       	pop	r29
    1358:	cf 91       	pop	r28
    135a:	08 95       	ret

0000135c <prvCopyDataFromQueue>:
    135c:	cf 93       	push	r28
    135e:	df 93       	push	r29
    1360:	00 d0       	rcall	.+0      	; 0x1362 <prvCopyDataFromQueue+0x6>
    1362:	1f 92       	push	r1
    1364:	cd b7       	in	r28, 0x3d	; 61
    1366:	de b7       	in	r29, 0x3e	; 62
    1368:	9a 83       	std	Y+2, r25	; 0x02
    136a:	89 83       	std	Y+1, r24	; 0x01
    136c:	7c 83       	std	Y+4, r23	; 0x04
    136e:	6b 83       	std	Y+3, r22	; 0x03
    1370:	89 81       	ldd	r24, Y+1	; 0x01
    1372:	9a 81       	ldd	r25, Y+2	; 0x02
    1374:	fc 01       	movw	r30, r24
    1376:	84 8d       	ldd	r24, Z+28	; 0x1c
    1378:	88 23       	and	r24, r24
    137a:	c9 f1       	breq	.+114    	; 0x13ee <prvCopyDataFromQueue+0x92>
    137c:	89 81       	ldd	r24, Y+1	; 0x01
    137e:	9a 81       	ldd	r25, Y+2	; 0x02
    1380:	fc 01       	movw	r30, r24
    1382:	26 81       	ldd	r18, Z+6	; 0x06
    1384:	37 81       	ldd	r19, Z+7	; 0x07
    1386:	89 81       	ldd	r24, Y+1	; 0x01
    1388:	9a 81       	ldd	r25, Y+2	; 0x02
    138a:	fc 01       	movw	r30, r24
    138c:	84 8d       	ldd	r24, Z+28	; 0x1c
    138e:	88 2f       	mov	r24, r24
    1390:	90 e0       	ldi	r25, 0x00	; 0
    1392:	28 0f       	add	r18, r24
    1394:	39 1f       	adc	r19, r25
    1396:	89 81       	ldd	r24, Y+1	; 0x01
    1398:	9a 81       	ldd	r25, Y+2	; 0x02
    139a:	fc 01       	movw	r30, r24
    139c:	37 83       	std	Z+7, r19	; 0x07
    139e:	26 83       	std	Z+6, r18	; 0x06
    13a0:	89 81       	ldd	r24, Y+1	; 0x01
    13a2:	9a 81       	ldd	r25, Y+2	; 0x02
    13a4:	fc 01       	movw	r30, r24
    13a6:	26 81       	ldd	r18, Z+6	; 0x06
    13a8:	37 81       	ldd	r19, Z+7	; 0x07
    13aa:	89 81       	ldd	r24, Y+1	; 0x01
    13ac:	9a 81       	ldd	r25, Y+2	; 0x02
    13ae:	fc 01       	movw	r30, r24
    13b0:	82 81       	ldd	r24, Z+2	; 0x02
    13b2:	93 81       	ldd	r25, Z+3	; 0x03
    13b4:	28 17       	cp	r18, r24
    13b6:	39 07       	cpc	r19, r25
    13b8:	50 f0       	brcs	.+20     	; 0x13ce <prvCopyDataFromQueue+0x72>
    13ba:	89 81       	ldd	r24, Y+1	; 0x01
    13bc:	9a 81       	ldd	r25, Y+2	; 0x02
    13be:	fc 01       	movw	r30, r24
    13c0:	20 81       	ld	r18, Z
    13c2:	31 81       	ldd	r19, Z+1	; 0x01
    13c4:	89 81       	ldd	r24, Y+1	; 0x01
    13c6:	9a 81       	ldd	r25, Y+2	; 0x02
    13c8:	fc 01       	movw	r30, r24
    13ca:	37 83       	std	Z+7, r19	; 0x07
    13cc:	26 83       	std	Z+6, r18	; 0x06
    13ce:	89 81       	ldd	r24, Y+1	; 0x01
    13d0:	9a 81       	ldd	r25, Y+2	; 0x02
    13d2:	fc 01       	movw	r30, r24
    13d4:	84 8d       	ldd	r24, Z+28	; 0x1c
    13d6:	48 2f       	mov	r20, r24
    13d8:	50 e0       	ldi	r21, 0x00	; 0
    13da:	89 81       	ldd	r24, Y+1	; 0x01
    13dc:	9a 81       	ldd	r25, Y+2	; 0x02
    13de:	fc 01       	movw	r30, r24
    13e0:	26 81       	ldd	r18, Z+6	; 0x06
    13e2:	37 81       	ldd	r19, Z+7	; 0x07
    13e4:	8b 81       	ldd	r24, Y+3	; 0x03
    13e6:	9c 81       	ldd	r25, Y+4	; 0x04
    13e8:	b9 01       	movw	r22, r18
    13ea:	0e 94 be 12 	call	0x257c	; 0x257c <memcpy>
    13ee:	0f 90       	pop	r0
    13f0:	0f 90       	pop	r0
    13f2:	0f 90       	pop	r0
    13f4:	0f 90       	pop	r0
    13f6:	df 91       	pop	r29
    13f8:	cf 91       	pop	r28
    13fa:	08 95       	ret

000013fc <prvUnlockQueue>:
    13fc:	cf 93       	push	r28
    13fe:	df 93       	push	r29
    1400:	1f 92       	push	r1
    1402:	1f 92       	push	r1
    1404:	cd b7       	in	r28, 0x3d	; 61
    1406:	de b7       	in	r29, 0x3e	; 62
    1408:	9a 83       	std	Y+2, r25	; 0x02
    140a:	89 83       	std	Y+1, r24	; 0x01
    140c:	0f b6       	in	r0, 0x3f	; 63
    140e:	f8 94       	cli
    1410:	0f 92       	push	r0
    1412:	19 c0       	rjmp	.+50     	; 0x1446 <prvUnlockQueue+0x4a>
    1414:	89 81       	ldd	r24, Y+1	; 0x01
    1416:	9a 81       	ldd	r25, Y+2	; 0x02
    1418:	fc 01       	movw	r30, r24
    141a:	81 89       	ldd	r24, Z+17	; 0x11
    141c:	88 23       	and	r24, r24
    141e:	41 f0       	breq	.+16     	; 0x1430 <prvUnlockQueue+0x34>
    1420:	89 81       	ldd	r24, Y+1	; 0x01
    1422:	9a 81       	ldd	r25, Y+2	; 0x02
    1424:	41 96       	adiw	r24, 0x11	; 17
    1426:	17 d4       	rcall	.+2094   	; 0x1c56 <xTaskRemoveFromEventList>
    1428:	88 23       	and	r24, r24
    142a:	19 f0       	breq	.+6      	; 0x1432 <prvUnlockQueue+0x36>
    142c:	04 d5       	rcall	.+2568   	; 0x1e36 <vTaskMissedYield>
    142e:	01 c0       	rjmp	.+2      	; 0x1432 <prvUnlockQueue+0x36>
    1430:	10 c0       	rjmp	.+32     	; 0x1452 <prvUnlockQueue+0x56>
    1432:	89 81       	ldd	r24, Y+1	; 0x01
    1434:	9a 81       	ldd	r25, Y+2	; 0x02
    1436:	fc 01       	movw	r30, r24
    1438:	86 8d       	ldd	r24, Z+30	; 0x1e
    143a:	81 50       	subi	r24, 0x01	; 1
    143c:	28 2f       	mov	r18, r24
    143e:	89 81       	ldd	r24, Y+1	; 0x01
    1440:	9a 81       	ldd	r25, Y+2	; 0x02
    1442:	fc 01       	movw	r30, r24
    1444:	26 8f       	std	Z+30, r18	; 0x1e
    1446:	89 81       	ldd	r24, Y+1	; 0x01
    1448:	9a 81       	ldd	r25, Y+2	; 0x02
    144a:	fc 01       	movw	r30, r24
    144c:	86 8d       	ldd	r24, Z+30	; 0x1e
    144e:	18 16       	cp	r1, r24
    1450:	0c f3       	brlt	.-62     	; 0x1414 <prvUnlockQueue+0x18>
    1452:	89 81       	ldd	r24, Y+1	; 0x01
    1454:	9a 81       	ldd	r25, Y+2	; 0x02
    1456:	2f ef       	ldi	r18, 0xFF	; 255
    1458:	fc 01       	movw	r30, r24
    145a:	26 8f       	std	Z+30, r18	; 0x1e
    145c:	0f 90       	pop	r0
    145e:	0f be       	out	0x3f, r0	; 63
    1460:	0f b6       	in	r0, 0x3f	; 63
    1462:	f8 94       	cli
    1464:	0f 92       	push	r0
    1466:	19 c0       	rjmp	.+50     	; 0x149a <prvUnlockQueue+0x9e>
    1468:	89 81       	ldd	r24, Y+1	; 0x01
    146a:	9a 81       	ldd	r25, Y+2	; 0x02
    146c:	fc 01       	movw	r30, r24
    146e:	80 85       	ldd	r24, Z+8	; 0x08
    1470:	88 23       	and	r24, r24
    1472:	91 f0       	breq	.+36     	; 0x1498 <prvUnlockQueue+0x9c>
    1474:	89 81       	ldd	r24, Y+1	; 0x01
    1476:	9a 81       	ldd	r25, Y+2	; 0x02
    1478:	08 96       	adiw	r24, 0x08	; 8
    147a:	ed d3       	rcall	.+2010   	; 0x1c56 <xTaskRemoveFromEventList>
    147c:	88 23       	and	r24, r24
    147e:	09 f0       	breq	.+2      	; 0x1482 <prvUnlockQueue+0x86>
    1480:	da d4       	rcall	.+2484   	; 0x1e36 <vTaskMissedYield>
    1482:	89 81       	ldd	r24, Y+1	; 0x01
    1484:	9a 81       	ldd	r25, Y+2	; 0x02
    1486:	fc 01       	movw	r30, r24
    1488:	85 8d       	ldd	r24, Z+29	; 0x1d
    148a:	81 50       	subi	r24, 0x01	; 1
    148c:	28 2f       	mov	r18, r24
    148e:	89 81       	ldd	r24, Y+1	; 0x01
    1490:	9a 81       	ldd	r25, Y+2	; 0x02
    1492:	fc 01       	movw	r30, r24
    1494:	25 8f       	std	Z+29, r18	; 0x1d
    1496:	01 c0       	rjmp	.+2      	; 0x149a <prvUnlockQueue+0x9e>
    1498:	06 c0       	rjmp	.+12     	; 0x14a6 <prvUnlockQueue+0xaa>
    149a:	89 81       	ldd	r24, Y+1	; 0x01
    149c:	9a 81       	ldd	r25, Y+2	; 0x02
    149e:	fc 01       	movw	r30, r24
    14a0:	85 8d       	ldd	r24, Z+29	; 0x1d
    14a2:	18 16       	cp	r1, r24
    14a4:	0c f3       	brlt	.-62     	; 0x1468 <prvUnlockQueue+0x6c>
    14a6:	89 81       	ldd	r24, Y+1	; 0x01
    14a8:	9a 81       	ldd	r25, Y+2	; 0x02
    14aa:	2f ef       	ldi	r18, 0xFF	; 255
    14ac:	fc 01       	movw	r30, r24
    14ae:	25 8f       	std	Z+29, r18	; 0x1d
    14b0:	0f 90       	pop	r0
    14b2:	0f be       	out	0x3f, r0	; 63
    14b4:	0f 90       	pop	r0
    14b6:	0f 90       	pop	r0
    14b8:	df 91       	pop	r29
    14ba:	cf 91       	pop	r28
    14bc:	08 95       	ret

000014be <prvIsQueueEmpty>:
    14be:	cf 93       	push	r28
    14c0:	df 93       	push	r29
    14c2:	00 d0       	rcall	.+0      	; 0x14c4 <prvIsQueueEmpty+0x6>
    14c4:	cd b7       	in	r28, 0x3d	; 61
    14c6:	de b7       	in	r29, 0x3e	; 62
    14c8:	9b 83       	std	Y+3, r25	; 0x03
    14ca:	8a 83       	std	Y+2, r24	; 0x02
    14cc:	0f b6       	in	r0, 0x3f	; 63
    14ce:	f8 94       	cli
    14d0:	0f 92       	push	r0
    14d2:	8a 81       	ldd	r24, Y+2	; 0x02
    14d4:	9b 81       	ldd	r25, Y+3	; 0x03
    14d6:	fc 01       	movw	r30, r24
    14d8:	82 8d       	ldd	r24, Z+26	; 0x1a
    14da:	88 23       	and	r24, r24
    14dc:	19 f4       	brne	.+6      	; 0x14e4 <prvIsQueueEmpty+0x26>
    14de:	81 e0       	ldi	r24, 0x01	; 1
    14e0:	89 83       	std	Y+1, r24	; 0x01
    14e2:	01 c0       	rjmp	.+2      	; 0x14e6 <prvIsQueueEmpty+0x28>
    14e4:	19 82       	std	Y+1, r1	; 0x01
    14e6:	0f 90       	pop	r0
    14e8:	0f be       	out	0x3f, r0	; 63
    14ea:	89 81       	ldd	r24, Y+1	; 0x01
    14ec:	0f 90       	pop	r0
    14ee:	0f 90       	pop	r0
    14f0:	0f 90       	pop	r0
    14f2:	df 91       	pop	r29
    14f4:	cf 91       	pop	r28
    14f6:	08 95       	ret

000014f8 <prvIsQueueFull>:
    14f8:	cf 93       	push	r28
    14fa:	df 93       	push	r29
    14fc:	00 d0       	rcall	.+0      	; 0x14fe <prvIsQueueFull+0x6>
    14fe:	cd b7       	in	r28, 0x3d	; 61
    1500:	de b7       	in	r29, 0x3e	; 62
    1502:	9b 83       	std	Y+3, r25	; 0x03
    1504:	8a 83       	std	Y+2, r24	; 0x02
    1506:	0f b6       	in	r0, 0x3f	; 63
    1508:	f8 94       	cli
    150a:	0f 92       	push	r0
    150c:	8a 81       	ldd	r24, Y+2	; 0x02
    150e:	9b 81       	ldd	r25, Y+3	; 0x03
    1510:	fc 01       	movw	r30, r24
    1512:	22 8d       	ldd	r18, Z+26	; 0x1a
    1514:	8a 81       	ldd	r24, Y+2	; 0x02
    1516:	9b 81       	ldd	r25, Y+3	; 0x03
    1518:	fc 01       	movw	r30, r24
    151a:	83 8d       	ldd	r24, Z+27	; 0x1b
    151c:	28 17       	cp	r18, r24
    151e:	19 f4       	brne	.+6      	; 0x1526 <prvIsQueueFull+0x2e>
    1520:	81 e0       	ldi	r24, 0x01	; 1
    1522:	89 83       	std	Y+1, r24	; 0x01
    1524:	01 c0       	rjmp	.+2      	; 0x1528 <prvIsQueueFull+0x30>
    1526:	19 82       	std	Y+1, r1	; 0x01
    1528:	0f 90       	pop	r0
    152a:	0f be       	out	0x3f, r0	; 63
    152c:	89 81       	ldd	r24, Y+1	; 0x01
    152e:	0f 90       	pop	r0
    1530:	0f 90       	pop	r0
    1532:	0f 90       	pop	r0
    1534:	df 91       	pop	r29
    1536:	cf 91       	pop	r28
    1538:	08 95       	ret

0000153a <xTaskGenericCreate>:
    153a:	af 92       	push	r10
    153c:	bf 92       	push	r11
    153e:	cf 92       	push	r12
    1540:	df 92       	push	r13
    1542:	ef 92       	push	r14
    1544:	ff 92       	push	r15
    1546:	0f 93       	push	r16
    1548:	1f 93       	push	r17
    154a:	cf 93       	push	r28
    154c:	df 93       	push	r29
    154e:	cd b7       	in	r28, 0x3d	; 61
    1550:	de b7       	in	r29, 0x3e	; 62
    1552:	64 97       	sbiw	r28, 0x14	; 20
    1554:	0f b6       	in	r0, 0x3f	; 63
    1556:	f8 94       	cli
    1558:	de bf       	out	0x3e, r29	; 62
    155a:	0f be       	out	0x3f, r0	; 63
    155c:	cd bf       	out	0x3d, r28	; 61
    155e:	9f 83       	std	Y+7, r25	; 0x07
    1560:	8e 83       	std	Y+6, r24	; 0x06
    1562:	79 87       	std	Y+9, r23	; 0x09
    1564:	68 87       	std	Y+8, r22	; 0x08
    1566:	5b 87       	std	Y+11, r21	; 0x0b
    1568:	4a 87       	std	Y+10, r20	; 0x0a
    156a:	3d 87       	std	Y+13, r19	; 0x0d
    156c:	2c 87       	std	Y+12, r18	; 0x0c
    156e:	0e 87       	std	Y+14, r16	; 0x0e
    1570:	f8 8a       	std	Y+16, r15	; 0x10
    1572:	ef 86       	std	Y+15, r14	; 0x0f
    1574:	da 8a       	std	Y+18, r13	; 0x12
    1576:	c9 8a       	std	Y+17, r12	; 0x11
    1578:	bc 8a       	std	Y+20, r11	; 0x14
    157a:	ab 8a       	std	Y+19, r10	; 0x13
    157c:	29 89       	ldd	r18, Y+17	; 0x11
    157e:	3a 89       	ldd	r19, Y+18	; 0x12
    1580:	8a 85       	ldd	r24, Y+10	; 0x0a
    1582:	9b 85       	ldd	r25, Y+11	; 0x0b
    1584:	b9 01       	movw	r22, r18
    1586:	a9 d5       	rcall	.+2898   	; 0x20da <prvAllocateTCBAndStack>
    1588:	9b 83       	std	Y+3, r25	; 0x03
    158a:	8a 83       	std	Y+2, r24	; 0x02
    158c:	8a 81       	ldd	r24, Y+2	; 0x02
    158e:	9b 81       	ldd	r25, Y+3	; 0x03
    1590:	89 2b       	or	r24, r25
    1592:	09 f4       	brne	.+2      	; 0x1596 <xTaskGenericCreate+0x5c>
    1594:	8f c0       	rjmp	.+286    	; 0x16b4 <xTaskGenericCreate+0x17a>
    1596:	8a 81       	ldd	r24, Y+2	; 0x02
    1598:	9b 81       	ldd	r25, Y+3	; 0x03
    159a:	fc 01       	movw	r30, r24
    159c:	27 89       	ldd	r18, Z+23	; 0x17
    159e:	30 8d       	ldd	r19, Z+24	; 0x18
    15a0:	8a 85       	ldd	r24, Y+10	; 0x0a
    15a2:	9b 85       	ldd	r25, Y+11	; 0x0b
    15a4:	01 97       	sbiw	r24, 0x01	; 1
    15a6:	82 0f       	add	r24, r18
    15a8:	93 1f       	adc	r25, r19
    15aa:	9d 83       	std	Y+5, r25	; 0x05
    15ac:	8c 83       	std	Y+4, r24	; 0x04
    15ae:	4a 85       	ldd	r20, Y+10	; 0x0a
    15b0:	5b 85       	ldd	r21, Y+11	; 0x0b
    15b2:	2b 89       	ldd	r18, Y+19	; 0x13
    15b4:	3c 89       	ldd	r19, Y+20	; 0x14
    15b6:	68 85       	ldd	r22, Y+8	; 0x08
    15b8:	79 85       	ldd	r23, Y+9	; 0x09
    15ba:	8a 81       	ldd	r24, Y+2	; 0x02
    15bc:	9b 81       	ldd	r25, Y+3	; 0x03
    15be:	8a 01       	movw	r16, r20
    15c0:	4e 85       	ldd	r20, Y+14	; 0x0e
    15c2:	43 d4       	rcall	.+2182   	; 0x1e4a <prvInitialiseTCBVariables>
    15c4:	4c 85       	ldd	r20, Y+12	; 0x0c
    15c6:	5d 85       	ldd	r21, Y+13	; 0x0d
    15c8:	2e 81       	ldd	r18, Y+6	; 0x06
    15ca:	3f 81       	ldd	r19, Y+7	; 0x07
    15cc:	8c 81       	ldd	r24, Y+4	; 0x04
    15ce:	9d 81       	ldd	r25, Y+5	; 0x05
    15d0:	b9 01       	movw	r22, r18
    15d2:	0e 94 0a 02 	call	0x414	; 0x414 <pxPortInitialiseStack>
    15d6:	9c 01       	movw	r18, r24
    15d8:	8a 81       	ldd	r24, Y+2	; 0x02
    15da:	9b 81       	ldd	r25, Y+3	; 0x03
    15dc:	fc 01       	movw	r30, r24
    15de:	31 83       	std	Z+1, r19	; 0x01
    15e0:	20 83       	st	Z, r18
    15e2:	8f 85       	ldd	r24, Y+15	; 0x0f
    15e4:	98 89       	ldd	r25, Y+16	; 0x10
    15e6:	89 2b       	or	r24, r25
    15e8:	39 f0       	breq	.+14     	; 0x15f8 <xTaskGenericCreate+0xbe>
    15ea:	8f 85       	ldd	r24, Y+15	; 0x0f
    15ec:	98 89       	ldd	r25, Y+16	; 0x10
    15ee:	2a 81       	ldd	r18, Y+2	; 0x02
    15f0:	3b 81       	ldd	r19, Y+3	; 0x03
    15f2:	fc 01       	movw	r30, r24
    15f4:	31 83       	std	Z+1, r19	; 0x01
    15f6:	20 83       	st	Z, r18
    15f8:	0f b6       	in	r0, 0x3f	; 63
    15fa:	f8 94       	cli
    15fc:	0f 92       	push	r0
    15fe:	80 91 31 0c 	lds	r24, 0x0C31	; 0x800c31 <uxCurrentNumberOfTasks>
    1602:	8f 5f       	subi	r24, 0xFF	; 255
    1604:	80 93 31 0c 	sts	0x0C31, r24	; 0x800c31 <uxCurrentNumberOfTasks>
    1608:	80 91 e2 0b 	lds	r24, 0x0BE2	; 0x800be2 <pxCurrentTCB>
    160c:	90 91 e3 0b 	lds	r25, 0x0BE3	; 0x800be3 <pxCurrentTCB+0x1>
    1610:	89 2b       	or	r24, r25
    1612:	61 f4       	brne	.+24     	; 0x162c <xTaskGenericCreate+0xf2>
    1614:	8a 81       	ldd	r24, Y+2	; 0x02
    1616:	9b 81       	ldd	r25, Y+3	; 0x03
    1618:	90 93 e3 0b 	sts	0x0BE3, r25	; 0x800be3 <pxCurrentTCB+0x1>
    161c:	80 93 e2 0b 	sts	0x0BE2, r24	; 0x800be2 <pxCurrentTCB>
    1620:	80 91 31 0c 	lds	r24, 0x0C31	; 0x800c31 <uxCurrentNumberOfTasks>
    1624:	81 30       	cpi	r24, 0x01	; 1
    1626:	a9 f4       	brne	.+42     	; 0x1652 <xTaskGenericCreate+0x118>
    1628:	94 d4       	rcall	.+2344   	; 0x1f52 <prvInitialiseTaskLists>
    162a:	13 c0       	rjmp	.+38     	; 0x1652 <xTaskGenericCreate+0x118>
    162c:	80 91 35 0c 	lds	r24, 0x0C35	; 0x800c35 <xSchedulerRunning>
    1630:	88 23       	and	r24, r24
    1632:	79 f4       	brne	.+30     	; 0x1652 <xTaskGenericCreate+0x118>
    1634:	80 91 e2 0b 	lds	r24, 0x0BE2	; 0x800be2 <pxCurrentTCB>
    1638:	90 91 e3 0b 	lds	r25, 0x0BE3	; 0x800be3 <pxCurrentTCB+0x1>
    163c:	fc 01       	movw	r30, r24
    163e:	96 89       	ldd	r25, Z+22	; 0x16
    1640:	8e 85       	ldd	r24, Y+14	; 0x0e
    1642:	89 17       	cp	r24, r25
    1644:	30 f0       	brcs	.+12     	; 0x1652 <xTaskGenericCreate+0x118>
    1646:	8a 81       	ldd	r24, Y+2	; 0x02
    1648:	9b 81       	ldd	r25, Y+3	; 0x03
    164a:	90 93 e3 0b 	sts	0x0BE3, r25	; 0x800be3 <pxCurrentTCB+0x1>
    164e:	80 93 e2 0b 	sts	0x0BE2, r24	; 0x800be2 <pxCurrentTCB>
    1652:	80 91 39 0c 	lds	r24, 0x0C39	; 0x800c39 <uxTaskNumber>
    1656:	8f 5f       	subi	r24, 0xFF	; 255
    1658:	80 93 39 0c 	sts	0x0C39, r24	; 0x800c39 <uxTaskNumber>
    165c:	8a 81       	ldd	r24, Y+2	; 0x02
    165e:	9b 81       	ldd	r25, Y+3	; 0x03
    1660:	fc 01       	movw	r30, r24
    1662:	96 89       	ldd	r25, Z+22	; 0x16
    1664:	80 91 34 0c 	lds	r24, 0x0C34	; 0x800c34 <uxTopReadyPriority>
    1668:	89 17       	cp	r24, r25
    166a:	30 f4       	brcc	.+12     	; 0x1678 <xTaskGenericCreate+0x13e>
    166c:	8a 81       	ldd	r24, Y+2	; 0x02
    166e:	9b 81       	ldd	r25, Y+3	; 0x03
    1670:	fc 01       	movw	r30, r24
    1672:	86 89       	ldd	r24, Z+22	; 0x16
    1674:	80 93 34 0c 	sts	0x0C34, r24	; 0x800c34 <uxTopReadyPriority>
    1678:	8a 81       	ldd	r24, Y+2	; 0x02
    167a:	9b 81       	ldd	r25, Y+3	; 0x03
    167c:	ac 01       	movw	r20, r24
    167e:	4e 5f       	subi	r20, 0xFE	; 254
    1680:	5f 4f       	sbci	r21, 0xFF	; 255
    1682:	8a 81       	ldd	r24, Y+2	; 0x02
    1684:	9b 81       	ldd	r25, Y+3	; 0x03
    1686:	fc 01       	movw	r30, r24
    1688:	86 89       	ldd	r24, Z+22	; 0x16
    168a:	28 2f       	mov	r18, r24
    168c:	30 e0       	ldi	r19, 0x00	; 0
    168e:	c9 01       	movw	r24, r18
    1690:	88 0f       	add	r24, r24
    1692:	99 1f       	adc	r25, r25
    1694:	88 0f       	add	r24, r24
    1696:	99 1f       	adc	r25, r25
    1698:	88 0f       	add	r24, r24
    169a:	99 1f       	adc	r25, r25
    169c:	82 0f       	add	r24, r18
    169e:	93 1f       	adc	r25, r19
    16a0:	8c 51       	subi	r24, 0x1C	; 28
    16a2:	94 4f       	sbci	r25, 0xF4	; 244
    16a4:	ba 01       	movw	r22, r20
    16a6:	0e 94 ef 00 	call	0x1de	; 0x1de <vListInsertEnd>
    16aa:	81 e0       	ldi	r24, 0x01	; 1
    16ac:	89 83       	std	Y+1, r24	; 0x01
    16ae:	0f 90       	pop	r0
    16b0:	0f be       	out	0x3f, r0	; 63
    16b2:	02 c0       	rjmp	.+4      	; 0x16b8 <xTaskGenericCreate+0x17e>
    16b4:	8f ef       	ldi	r24, 0xFF	; 255
    16b6:	89 83       	std	Y+1, r24	; 0x01
    16b8:	89 81       	ldd	r24, Y+1	; 0x01
    16ba:	81 30       	cpi	r24, 0x01	; 1
    16bc:	71 f4       	brne	.+28     	; 0x16da <xTaskGenericCreate+0x1a0>
    16be:	80 91 35 0c 	lds	r24, 0x0C35	; 0x800c35 <xSchedulerRunning>
    16c2:	88 23       	and	r24, r24
    16c4:	51 f0       	breq	.+20     	; 0x16da <xTaskGenericCreate+0x1a0>
    16c6:	80 91 e2 0b 	lds	r24, 0x0BE2	; 0x800be2 <pxCurrentTCB>
    16ca:	90 91 e3 0b 	lds	r25, 0x0BE3	; 0x800be3 <pxCurrentTCB+0x1>
    16ce:	fc 01       	movw	r30, r24
    16d0:	96 89       	ldd	r25, Z+22	; 0x16
    16d2:	8e 85       	ldd	r24, Y+14	; 0x0e
    16d4:	98 17       	cp	r25, r24
    16d6:	08 f4       	brcc	.+2      	; 0x16da <xTaskGenericCreate+0x1a0>
    16d8:	99 d8       	rcall	.-3790   	; 0x80c <vPortYield>
    16da:	89 81       	ldd	r24, Y+1	; 0x01
    16dc:	64 96       	adiw	r28, 0x14	; 20
    16de:	0f b6       	in	r0, 0x3f	; 63
    16e0:	f8 94       	cli
    16e2:	de bf       	out	0x3e, r29	; 62
    16e4:	0f be       	out	0x3f, r0	; 63
    16e6:	cd bf       	out	0x3d, r28	; 61
    16e8:	df 91       	pop	r29
    16ea:	cf 91       	pop	r28
    16ec:	1f 91       	pop	r17
    16ee:	0f 91       	pop	r16
    16f0:	ff 90       	pop	r15
    16f2:	ef 90       	pop	r14
    16f4:	df 90       	pop	r13
    16f6:	cf 90       	pop	r12
    16f8:	bf 90       	pop	r11
    16fa:	af 90       	pop	r10
    16fc:	08 95       	ret

000016fe <vTaskDelay>:
    16fe:	cf 93       	push	r28
    1700:	df 93       	push	r29
    1702:	00 d0       	rcall	.+0      	; 0x1704 <vTaskDelay+0x6>
    1704:	1f 92       	push	r1
    1706:	1f 92       	push	r1
    1708:	cd b7       	in	r28, 0x3d	; 61
    170a:	de b7       	in	r29, 0x3e	; 62
    170c:	9d 83       	std	Y+5, r25	; 0x05
    170e:	8c 83       	std	Y+4, r24	; 0x04
    1710:	19 82       	std	Y+1, r1	; 0x01
    1712:	8c 81       	ldd	r24, Y+4	; 0x04
    1714:	9d 81       	ldd	r25, Y+5	; 0x05
    1716:	89 2b       	or	r24, r25
    1718:	b9 f0       	breq	.+46     	; 0x1748 <vTaskDelay+0x4a>
    171a:	57 d0       	rcall	.+174    	; 0x17ca <vTaskSuspendAll>
    171c:	20 91 32 0c 	lds	r18, 0x0C32	; 0x800c32 <xTickCount>
    1720:	30 91 33 0c 	lds	r19, 0x0C33	; 0x800c33 <xTickCount+0x1>
    1724:	8c 81       	ldd	r24, Y+4	; 0x04
    1726:	9d 81       	ldd	r25, Y+5	; 0x05
    1728:	82 0f       	add	r24, r18
    172a:	93 1f       	adc	r25, r19
    172c:	9b 83       	std	Y+3, r25	; 0x03
    172e:	8a 83       	std	Y+2, r24	; 0x02
    1730:	80 91 e2 0b 	lds	r24, 0x0BE2	; 0x800be2 <pxCurrentTCB>
    1734:	90 91 e3 0b 	lds	r25, 0x0BE3	; 0x800be3 <pxCurrentTCB+0x1>
    1738:	02 96       	adiw	r24, 0x02	; 2
    173a:	0e 94 b3 01 	call	0x366	; 0x366 <uxListRemove>
    173e:	8a 81       	ldd	r24, Y+2	; 0x02
    1740:	9b 81       	ldd	r25, Y+3	; 0x03
    1742:	80 d4       	rcall	.+2304   	; 0x2044 <prvAddCurrentTaskToDelayedList>
    1744:	4e d0       	rcall	.+156    	; 0x17e2 <xTaskResumeAll>
    1746:	89 83       	std	Y+1, r24	; 0x01
    1748:	89 81       	ldd	r24, Y+1	; 0x01
    174a:	88 23       	and	r24, r24
    174c:	09 f4       	brne	.+2      	; 0x1750 <vTaskDelay+0x52>
    174e:	5e d8       	rcall	.-3908   	; 0x80c <vPortYield>
    1750:	0f 90       	pop	r0
    1752:	0f 90       	pop	r0
    1754:	0f 90       	pop	r0
    1756:	0f 90       	pop	r0
    1758:	0f 90       	pop	r0
    175a:	df 91       	pop	r29
    175c:	cf 91       	pop	r28
    175e:	08 95       	ret

00001760 <vTaskStartScheduler>:
    1760:	af 92       	push	r10
    1762:	bf 92       	push	r11
    1764:	cf 92       	push	r12
    1766:	df 92       	push	r13
    1768:	ef 92       	push	r14
    176a:	ff 92       	push	r15
    176c:	0f 93       	push	r16
    176e:	cf 93       	push	r28
    1770:	df 93       	push	r29
    1772:	1f 92       	push	r1
    1774:	cd b7       	in	r28, 0x3d	; 61
    1776:	de b7       	in	r29, 0x3e	; 62
    1778:	a1 2c       	mov	r10, r1
    177a:	b1 2c       	mov	r11, r1
    177c:	c1 2c       	mov	r12, r1
    177e:	d1 2c       	mov	r13, r1
    1780:	e1 2c       	mov	r14, r1
    1782:	f1 2c       	mov	r15, r1
    1784:	00 e0       	ldi	r16, 0x00	; 0
    1786:	20 e0       	ldi	r18, 0x00	; 0
    1788:	30 e0       	ldi	r19, 0x00	; 0
    178a:	49 eb       	ldi	r20, 0xB9	; 185
    178c:	50 e0       	ldi	r21, 0x00	; 0
    178e:	62 e0       	ldi	r22, 0x02	; 2
    1790:	72 e0       	ldi	r23, 0x02	; 2
    1792:	82 e7       	ldi	r24, 0x72	; 114
    1794:	90 e0       	ldi	r25, 0x00	; 0
    1796:	d1 de       	rcall	.-606    	; 0x153a <xTaskGenericCreate>
    1798:	89 83       	std	Y+1, r24	; 0x01
    179a:	89 81       	ldd	r24, Y+1	; 0x01
    179c:	81 30       	cpi	r24, 0x01	; 1
    179e:	51 f4       	brne	.+20     	; 0x17b4 <vTaskStartScheduler+0x54>
    17a0:	f8 94       	cli
    17a2:	81 e0       	ldi	r24, 0x01	; 1
    17a4:	80 93 35 0c 	sts	0x0C35, r24	; 0x800c35 <xSchedulerRunning>
    17a8:	10 92 33 0c 	sts	0x0C33, r1	; 0x800c33 <xTickCount+0x1>
    17ac:	10 92 32 0c 	sts	0x0C32, r1	; 0x800c32 <xTickCount>
    17b0:	0e 94 ce 03 	call	0x79c	; 0x79c <xPortStartScheduler>
    17b4:	0f 90       	pop	r0
    17b6:	df 91       	pop	r29
    17b8:	cf 91       	pop	r28
    17ba:	0f 91       	pop	r16
    17bc:	ff 90       	pop	r15
    17be:	ef 90       	pop	r14
    17c0:	df 90       	pop	r13
    17c2:	cf 90       	pop	r12
    17c4:	bf 90       	pop	r11
    17c6:	af 90       	pop	r10
    17c8:	08 95       	ret

000017ca <vTaskSuspendAll>:
    17ca:	cf 93       	push	r28
    17cc:	df 93       	push	r29
    17ce:	cd b7       	in	r28, 0x3d	; 61
    17d0:	de b7       	in	r29, 0x3e	; 62
    17d2:	80 91 3a 0c 	lds	r24, 0x0C3A	; 0x800c3a <uxSchedulerSuspended>
    17d6:	8f 5f       	subi	r24, 0xFF	; 255
    17d8:	80 93 3a 0c 	sts	0x0C3A, r24	; 0x800c3a <uxSchedulerSuspended>
    17dc:	df 91       	pop	r29
    17de:	cf 91       	pop	r28
    17e0:	08 95       	ret

000017e2 <xTaskResumeAll>:
    17e2:	cf 93       	push	r28
    17e4:	df 93       	push	r29
    17e6:	00 d0       	rcall	.+0      	; 0x17e8 <xTaskResumeAll+0x6>
    17e8:	cd b7       	in	r28, 0x3d	; 61
    17ea:	de b7       	in	r29, 0x3e	; 62
    17ec:	19 82       	std	Y+1, r1	; 0x01
    17ee:	0f b6       	in	r0, 0x3f	; 63
    17f0:	f8 94       	cli
    17f2:	0f 92       	push	r0
    17f4:	80 91 3a 0c 	lds	r24, 0x0C3A	; 0x800c3a <uxSchedulerSuspended>
    17f8:	81 50       	subi	r24, 0x01	; 1
    17fa:	80 93 3a 0c 	sts	0x0C3A, r24	; 0x800c3a <uxSchedulerSuspended>
    17fe:	80 91 3a 0c 	lds	r24, 0x0C3A	; 0x800c3a <uxSchedulerSuspended>
    1802:	88 23       	and	r24, r24
    1804:	09 f0       	breq	.+2      	; 0x1808 <xTaskResumeAll+0x26>
    1806:	70 c0       	rjmp	.+224    	; 0x18e8 <xTaskResumeAll+0x106>
    1808:	80 91 31 0c 	lds	r24, 0x0C31	; 0x800c31 <uxCurrentNumberOfTasks>
    180c:	88 23       	and	r24, r24
    180e:	09 f4       	brne	.+2      	; 0x1812 <xTaskResumeAll+0x30>
    1810:	6b c0       	rjmp	.+214    	; 0x18e8 <xTaskResumeAll+0x106>
    1812:	49 c0       	rjmp	.+146    	; 0x18a6 <xTaskResumeAll+0xc4>
    1814:	80 91 23 0c 	lds	r24, 0x0C23	; 0x800c23 <xPendingReadyList+0x5>
    1818:	90 91 24 0c 	lds	r25, 0x0C24	; 0x800c24 <xPendingReadyList+0x6>
    181c:	fc 01       	movw	r30, r24
    181e:	86 81       	ldd	r24, Z+6	; 0x06
    1820:	97 81       	ldd	r25, Z+7	; 0x07
    1822:	9b 83       	std	Y+3, r25	; 0x03
    1824:	8a 83       	std	Y+2, r24	; 0x02
    1826:	8a 81       	ldd	r24, Y+2	; 0x02
    1828:	9b 81       	ldd	r25, Y+3	; 0x03
    182a:	0c 96       	adiw	r24, 0x0c	; 12
    182c:	0e 94 b3 01 	call	0x366	; 0x366 <uxListRemove>
    1830:	8a 81       	ldd	r24, Y+2	; 0x02
    1832:	9b 81       	ldd	r25, Y+3	; 0x03
    1834:	02 96       	adiw	r24, 0x02	; 2
    1836:	0e 94 b3 01 	call	0x366	; 0x366 <uxListRemove>
    183a:	8a 81       	ldd	r24, Y+2	; 0x02
    183c:	9b 81       	ldd	r25, Y+3	; 0x03
    183e:	fc 01       	movw	r30, r24
    1840:	96 89       	ldd	r25, Z+22	; 0x16
    1842:	80 91 34 0c 	lds	r24, 0x0C34	; 0x800c34 <uxTopReadyPriority>
    1846:	89 17       	cp	r24, r25
    1848:	30 f4       	brcc	.+12     	; 0x1856 <xTaskResumeAll+0x74>
    184a:	8a 81       	ldd	r24, Y+2	; 0x02
    184c:	9b 81       	ldd	r25, Y+3	; 0x03
    184e:	fc 01       	movw	r30, r24
    1850:	86 89       	ldd	r24, Z+22	; 0x16
    1852:	80 93 34 0c 	sts	0x0C34, r24	; 0x800c34 <uxTopReadyPriority>
    1856:	8a 81       	ldd	r24, Y+2	; 0x02
    1858:	9b 81       	ldd	r25, Y+3	; 0x03
    185a:	ac 01       	movw	r20, r24
    185c:	4e 5f       	subi	r20, 0xFE	; 254
    185e:	5f 4f       	sbci	r21, 0xFF	; 255
    1860:	8a 81       	ldd	r24, Y+2	; 0x02
    1862:	9b 81       	ldd	r25, Y+3	; 0x03
    1864:	fc 01       	movw	r30, r24
    1866:	86 89       	ldd	r24, Z+22	; 0x16
    1868:	28 2f       	mov	r18, r24
    186a:	30 e0       	ldi	r19, 0x00	; 0
    186c:	c9 01       	movw	r24, r18
    186e:	88 0f       	add	r24, r24
    1870:	99 1f       	adc	r25, r25
    1872:	88 0f       	add	r24, r24
    1874:	99 1f       	adc	r25, r25
    1876:	88 0f       	add	r24, r24
    1878:	99 1f       	adc	r25, r25
    187a:	82 0f       	add	r24, r18
    187c:	93 1f       	adc	r25, r19
    187e:	8c 51       	subi	r24, 0x1C	; 28
    1880:	94 4f       	sbci	r25, 0xF4	; 244
    1882:	ba 01       	movw	r22, r20
    1884:	0e 94 ef 00 	call	0x1de	; 0x1de <vListInsertEnd>
    1888:	8a 81       	ldd	r24, Y+2	; 0x02
    188a:	9b 81       	ldd	r25, Y+3	; 0x03
    188c:	fc 01       	movw	r30, r24
    188e:	26 89       	ldd	r18, Z+22	; 0x16
    1890:	80 91 e2 0b 	lds	r24, 0x0BE2	; 0x800be2 <pxCurrentTCB>
    1894:	90 91 e3 0b 	lds	r25, 0x0BE3	; 0x800be3 <pxCurrentTCB+0x1>
    1898:	fc 01       	movw	r30, r24
    189a:	86 89       	ldd	r24, Z+22	; 0x16
    189c:	28 17       	cp	r18, r24
    189e:	18 f0       	brcs	.+6      	; 0x18a6 <xTaskResumeAll+0xc4>
    18a0:	81 e0       	ldi	r24, 0x01	; 1
    18a2:	80 93 37 0c 	sts	0x0C37, r24	; 0x800c37 <xYieldPending>
    18a6:	80 91 1e 0c 	lds	r24, 0x0C1E	; 0x800c1e <xPendingReadyList>
    18aa:	88 23       	and	r24, r24
    18ac:	09 f0       	breq	.+2      	; 0x18b0 <xTaskResumeAll+0xce>
    18ae:	b2 cf       	rjmp	.-156    	; 0x1814 <xTaskResumeAll+0x32>
    18b0:	80 91 36 0c 	lds	r24, 0x0C36	; 0x800c36 <uxPendedTicks>
    18b4:	88 23       	and	r24, r24
    18b6:	81 f0       	breq	.+32     	; 0x18d8 <xTaskResumeAll+0xf6>
    18b8:	0b c0       	rjmp	.+22     	; 0x18d0 <xTaskResumeAll+0xee>
    18ba:	1f d0       	rcall	.+62     	; 0x18fa <xTaskIncrementTick>
    18bc:	88 23       	and	r24, r24
    18be:	19 f0       	breq	.+6      	; 0x18c6 <xTaskResumeAll+0xe4>
    18c0:	81 e0       	ldi	r24, 0x01	; 1
    18c2:	80 93 37 0c 	sts	0x0C37, r24	; 0x800c37 <xYieldPending>
    18c6:	80 91 36 0c 	lds	r24, 0x0C36	; 0x800c36 <uxPendedTicks>
    18ca:	81 50       	subi	r24, 0x01	; 1
    18cc:	80 93 36 0c 	sts	0x0C36, r24	; 0x800c36 <uxPendedTicks>
    18d0:	80 91 36 0c 	lds	r24, 0x0C36	; 0x800c36 <uxPendedTicks>
    18d4:	88 23       	and	r24, r24
    18d6:	89 f7       	brne	.-30     	; 0x18ba <xTaskResumeAll+0xd8>
    18d8:	80 91 37 0c 	lds	r24, 0x0C37	; 0x800c37 <xYieldPending>
    18dc:	81 30       	cpi	r24, 0x01	; 1
    18de:	21 f4       	brne	.+8      	; 0x18e8 <xTaskResumeAll+0x106>
    18e0:	81 e0       	ldi	r24, 0x01	; 1
    18e2:	89 83       	std	Y+1, r24	; 0x01
    18e4:	0e 94 06 04 	call	0x80c	; 0x80c <vPortYield>
    18e8:	0f 90       	pop	r0
    18ea:	0f be       	out	0x3f, r0	; 63
    18ec:	89 81       	ldd	r24, Y+1	; 0x01
    18ee:	0f 90       	pop	r0
    18f0:	0f 90       	pop	r0
    18f2:	0f 90       	pop	r0
    18f4:	df 91       	pop	r29
    18f6:	cf 91       	pop	r28
    18f8:	08 95       	ret

000018fa <xTaskIncrementTick>:
    18fa:	cf 93       	push	r28
    18fc:	df 93       	push	r29
    18fe:	cd b7       	in	r28, 0x3d	; 61
    1900:	de b7       	in	r29, 0x3e	; 62
    1902:	29 97       	sbiw	r28, 0x09	; 9
    1904:	0f b6       	in	r0, 0x3f	; 63
    1906:	f8 94       	cli
    1908:	de bf       	out	0x3e, r29	; 62
    190a:	0f be       	out	0x3f, r0	; 63
    190c:	cd bf       	out	0x3d, r28	; 61
    190e:	19 82       	std	Y+1, r1	; 0x01
    1910:	80 91 3a 0c 	lds	r24, 0x0C3A	; 0x800c3a <uxSchedulerSuspended>
    1914:	88 23       	and	r24, r24
    1916:	09 f0       	breq	.+2      	; 0x191a <xTaskIncrementTick+0x20>
    1918:	c8 c0       	rjmp	.+400    	; 0x1aaa <xTaskIncrementTick+0x1b0>
    191a:	80 91 32 0c 	lds	r24, 0x0C32	; 0x800c32 <xTickCount>
    191e:	90 91 33 0c 	lds	r25, 0x0C33	; 0x800c33 <xTickCount+0x1>
    1922:	01 96       	adiw	r24, 0x01	; 1
    1924:	90 93 33 0c 	sts	0x0C33, r25	; 0x800c33 <xTickCount+0x1>
    1928:	80 93 32 0c 	sts	0x0C32, r24	; 0x800c32 <xTickCount>
    192c:	80 91 32 0c 	lds	r24, 0x0C32	; 0x800c32 <xTickCount>
    1930:	90 91 33 0c 	lds	r25, 0x0C33	; 0x800c33 <xTickCount+0x1>
    1934:	9b 83       	std	Y+3, r25	; 0x03
    1936:	8a 83       	std	Y+2, r24	; 0x02
    1938:	8a 81       	ldd	r24, Y+2	; 0x02
    193a:	9b 81       	ldd	r25, Y+3	; 0x03
    193c:	89 2b       	or	r24, r25
    193e:	d1 f4       	brne	.+52     	; 0x1974 <xTaskIncrementTick+0x7a>
    1940:	80 91 1a 0c 	lds	r24, 0x0C1A	; 0x800c1a <pxDelayedTaskList>
    1944:	90 91 1b 0c 	lds	r25, 0x0C1B	; 0x800c1b <pxDelayedTaskList+0x1>
    1948:	9d 83       	std	Y+5, r25	; 0x05
    194a:	8c 83       	std	Y+4, r24	; 0x04
    194c:	80 91 1c 0c 	lds	r24, 0x0C1C	; 0x800c1c <pxOverflowDelayedTaskList>
    1950:	90 91 1d 0c 	lds	r25, 0x0C1D	; 0x800c1d <pxOverflowDelayedTaskList+0x1>
    1954:	90 93 1b 0c 	sts	0x0C1B, r25	; 0x800c1b <pxDelayedTaskList+0x1>
    1958:	80 93 1a 0c 	sts	0x0C1A, r24	; 0x800c1a <pxDelayedTaskList>
    195c:	8c 81       	ldd	r24, Y+4	; 0x04
    195e:	9d 81       	ldd	r25, Y+5	; 0x05
    1960:	90 93 1d 0c 	sts	0x0C1D, r25	; 0x800c1d <pxOverflowDelayedTaskList+0x1>
    1964:	80 93 1c 0c 	sts	0x0C1C, r24	; 0x800c1c <pxOverflowDelayedTaskList>
    1968:	80 91 38 0c 	lds	r24, 0x0C38	; 0x800c38 <xNumOfOverflows>
    196c:	8f 5f       	subi	r24, 0xFF	; 255
    196e:	80 93 38 0c 	sts	0x0C38, r24	; 0x800c38 <xNumOfOverflows>
    1972:	0e d4       	rcall	.+2076   	; 0x2190 <prvResetNextTaskUnblockTime>
    1974:	80 91 00 02 	lds	r24, 0x0200	; 0x800200 <__data_start>
    1978:	90 91 01 02 	lds	r25, 0x0201	; 0x800201 <__data_start+0x1>
    197c:	2a 81       	ldd	r18, Y+2	; 0x02
    197e:	3b 81       	ldd	r19, Y+3	; 0x03
    1980:	28 17       	cp	r18, r24
    1982:	39 07       	cpc	r19, r25
    1984:	08 f4       	brcc	.+2      	; 0x1988 <xTaskIncrementTick+0x8e>
    1986:	77 c0       	rjmp	.+238    	; 0x1a76 <xTaskIncrementTick+0x17c>
    1988:	80 91 1a 0c 	lds	r24, 0x0C1A	; 0x800c1a <pxDelayedTaskList>
    198c:	90 91 1b 0c 	lds	r25, 0x0C1B	; 0x800c1b <pxDelayedTaskList+0x1>
    1990:	fc 01       	movw	r30, r24
    1992:	80 81       	ld	r24, Z
    1994:	88 23       	and	r24, r24
    1996:	39 f4       	brne	.+14     	; 0x19a6 <xTaskIncrementTick+0xac>
    1998:	8f ef       	ldi	r24, 0xFF	; 255
    199a:	9f ef       	ldi	r25, 0xFF	; 255
    199c:	90 93 01 02 	sts	0x0201, r25	; 0x800201 <__data_start+0x1>
    19a0:	80 93 00 02 	sts	0x0200, r24	; 0x800200 <__data_start>
    19a4:	68 c0       	rjmp	.+208    	; 0x1a76 <xTaskIncrementTick+0x17c>
    19a6:	80 91 1a 0c 	lds	r24, 0x0C1A	; 0x800c1a <pxDelayedTaskList>
    19aa:	90 91 1b 0c 	lds	r25, 0x0C1B	; 0x800c1b <pxDelayedTaskList+0x1>
    19ae:	fc 01       	movw	r30, r24
    19b0:	85 81       	ldd	r24, Z+5	; 0x05
    19b2:	96 81       	ldd	r25, Z+6	; 0x06
    19b4:	fc 01       	movw	r30, r24
    19b6:	86 81       	ldd	r24, Z+6	; 0x06
    19b8:	97 81       	ldd	r25, Z+7	; 0x07
    19ba:	9f 83       	std	Y+7, r25	; 0x07
    19bc:	8e 83       	std	Y+6, r24	; 0x06
    19be:	8e 81       	ldd	r24, Y+6	; 0x06
    19c0:	9f 81       	ldd	r25, Y+7	; 0x07
    19c2:	fc 01       	movw	r30, r24
    19c4:	82 81       	ldd	r24, Z+2	; 0x02
    19c6:	93 81       	ldd	r25, Z+3	; 0x03
    19c8:	99 87       	std	Y+9, r25	; 0x09
    19ca:	88 87       	std	Y+8, r24	; 0x08
    19cc:	2a 81       	ldd	r18, Y+2	; 0x02
    19ce:	3b 81       	ldd	r19, Y+3	; 0x03
    19d0:	88 85       	ldd	r24, Y+8	; 0x08
    19d2:	99 85       	ldd	r25, Y+9	; 0x09
    19d4:	28 17       	cp	r18, r24
    19d6:	39 07       	cpc	r19, r25
    19d8:	38 f4       	brcc	.+14     	; 0x19e8 <xTaskIncrementTick+0xee>
    19da:	88 85       	ldd	r24, Y+8	; 0x08
    19dc:	99 85       	ldd	r25, Y+9	; 0x09
    19de:	90 93 01 02 	sts	0x0201, r25	; 0x800201 <__data_start+0x1>
    19e2:	80 93 00 02 	sts	0x0200, r24	; 0x800200 <__data_start>
    19e6:	47 c0       	rjmp	.+142    	; 0x1a76 <xTaskIncrementTick+0x17c>
    19e8:	8e 81       	ldd	r24, Y+6	; 0x06
    19ea:	9f 81       	ldd	r25, Y+7	; 0x07
    19ec:	02 96       	adiw	r24, 0x02	; 2
    19ee:	0e 94 b3 01 	call	0x366	; 0x366 <uxListRemove>
    19f2:	8e 81       	ldd	r24, Y+6	; 0x06
    19f4:	9f 81       	ldd	r25, Y+7	; 0x07
    19f6:	fc 01       	movw	r30, r24
    19f8:	84 89       	ldd	r24, Z+20	; 0x14
    19fa:	95 89       	ldd	r25, Z+21	; 0x15
    19fc:	89 2b       	or	r24, r25
    19fe:	29 f0       	breq	.+10     	; 0x1a0a <xTaskIncrementTick+0x110>
    1a00:	8e 81       	ldd	r24, Y+6	; 0x06
    1a02:	9f 81       	ldd	r25, Y+7	; 0x07
    1a04:	0c 96       	adiw	r24, 0x0c	; 12
    1a06:	0e 94 b3 01 	call	0x366	; 0x366 <uxListRemove>
    1a0a:	8e 81       	ldd	r24, Y+6	; 0x06
    1a0c:	9f 81       	ldd	r25, Y+7	; 0x07
    1a0e:	fc 01       	movw	r30, r24
    1a10:	96 89       	ldd	r25, Z+22	; 0x16
    1a12:	80 91 34 0c 	lds	r24, 0x0C34	; 0x800c34 <uxTopReadyPriority>
    1a16:	89 17       	cp	r24, r25
    1a18:	30 f4       	brcc	.+12     	; 0x1a26 <xTaskIncrementTick+0x12c>
    1a1a:	8e 81       	ldd	r24, Y+6	; 0x06
    1a1c:	9f 81       	ldd	r25, Y+7	; 0x07
    1a1e:	fc 01       	movw	r30, r24
    1a20:	86 89       	ldd	r24, Z+22	; 0x16
    1a22:	80 93 34 0c 	sts	0x0C34, r24	; 0x800c34 <uxTopReadyPriority>
    1a26:	8e 81       	ldd	r24, Y+6	; 0x06
    1a28:	9f 81       	ldd	r25, Y+7	; 0x07
    1a2a:	ac 01       	movw	r20, r24
    1a2c:	4e 5f       	subi	r20, 0xFE	; 254
    1a2e:	5f 4f       	sbci	r21, 0xFF	; 255
    1a30:	8e 81       	ldd	r24, Y+6	; 0x06
    1a32:	9f 81       	ldd	r25, Y+7	; 0x07
    1a34:	fc 01       	movw	r30, r24
    1a36:	86 89       	ldd	r24, Z+22	; 0x16
    1a38:	28 2f       	mov	r18, r24
    1a3a:	30 e0       	ldi	r19, 0x00	; 0
    1a3c:	c9 01       	movw	r24, r18
    1a3e:	88 0f       	add	r24, r24
    1a40:	99 1f       	adc	r25, r25
    1a42:	88 0f       	add	r24, r24
    1a44:	99 1f       	adc	r25, r25
    1a46:	88 0f       	add	r24, r24
    1a48:	99 1f       	adc	r25, r25
    1a4a:	82 0f       	add	r24, r18
    1a4c:	93 1f       	adc	r25, r19
    1a4e:	8c 51       	subi	r24, 0x1C	; 28
    1a50:	94 4f       	sbci	r25, 0xF4	; 244
    1a52:	ba 01       	movw	r22, r20
    1a54:	0e 94 ef 00 	call	0x1de	; 0x1de <vListInsertEnd>
    1a58:	8e 81       	ldd	r24, Y+6	; 0x06
    1a5a:	9f 81       	ldd	r25, Y+7	; 0x07
    1a5c:	fc 01       	movw	r30, r24
    1a5e:	26 89       	ldd	r18, Z+22	; 0x16
    1a60:	80 91 e2 0b 	lds	r24, 0x0BE2	; 0x800be2 <pxCurrentTCB>
    1a64:	90 91 e3 0b 	lds	r25, 0x0BE3	; 0x800be3 <pxCurrentTCB+0x1>
    1a68:	fc 01       	movw	r30, r24
    1a6a:	86 89       	ldd	r24, Z+22	; 0x16
    1a6c:	28 17       	cp	r18, r24
    1a6e:	10 f0       	brcs	.+4      	; 0x1a74 <xTaskIncrementTick+0x17a>
    1a70:	81 e0       	ldi	r24, 0x01	; 1
    1a72:	89 83       	std	Y+1, r24	; 0x01
    1a74:	89 cf       	rjmp	.-238    	; 0x1988 <xTaskIncrementTick+0x8e>
    1a76:	80 91 e2 0b 	lds	r24, 0x0BE2	; 0x800be2 <pxCurrentTCB>
    1a7a:	90 91 e3 0b 	lds	r25, 0x0BE3	; 0x800be3 <pxCurrentTCB+0x1>
    1a7e:	fc 01       	movw	r30, r24
    1a80:	86 89       	ldd	r24, Z+22	; 0x16
    1a82:	28 2f       	mov	r18, r24
    1a84:	30 e0       	ldi	r19, 0x00	; 0
    1a86:	c9 01       	movw	r24, r18
    1a88:	88 0f       	add	r24, r24
    1a8a:	99 1f       	adc	r25, r25
    1a8c:	88 0f       	add	r24, r24
    1a8e:	99 1f       	adc	r25, r25
    1a90:	88 0f       	add	r24, r24
    1a92:	99 1f       	adc	r25, r25
    1a94:	82 0f       	add	r24, r18
    1a96:	93 1f       	adc	r25, r19
    1a98:	8c 51       	subi	r24, 0x1C	; 28
    1a9a:	94 4f       	sbci	r25, 0xF4	; 244
    1a9c:	fc 01       	movw	r30, r24
    1a9e:	80 81       	ld	r24, Z
    1aa0:	82 30       	cpi	r24, 0x02	; 2
    1aa2:	40 f0       	brcs	.+16     	; 0x1ab4 <xTaskIncrementTick+0x1ba>
    1aa4:	81 e0       	ldi	r24, 0x01	; 1
    1aa6:	89 83       	std	Y+1, r24	; 0x01
    1aa8:	05 c0       	rjmp	.+10     	; 0x1ab4 <xTaskIncrementTick+0x1ba>
    1aaa:	80 91 36 0c 	lds	r24, 0x0C36	; 0x800c36 <uxPendedTicks>
    1aae:	8f 5f       	subi	r24, 0xFF	; 255
    1ab0:	80 93 36 0c 	sts	0x0C36, r24	; 0x800c36 <uxPendedTicks>
    1ab4:	80 91 37 0c 	lds	r24, 0x0C37	; 0x800c37 <xYieldPending>
    1ab8:	88 23       	and	r24, r24
    1aba:	11 f0       	breq	.+4      	; 0x1ac0 <xTaskIncrementTick+0x1c6>
    1abc:	81 e0       	ldi	r24, 0x01	; 1
    1abe:	89 83       	std	Y+1, r24	; 0x01
    1ac0:	89 81       	ldd	r24, Y+1	; 0x01
    1ac2:	29 96       	adiw	r28, 0x09	; 9
    1ac4:	0f b6       	in	r0, 0x3f	; 63
    1ac6:	f8 94       	cli
    1ac8:	de bf       	out	0x3e, r29	; 62
    1aca:	0f be       	out	0x3f, r0	; 63
    1acc:	cd bf       	out	0x3d, r28	; 61
    1ace:	df 91       	pop	r29
    1ad0:	cf 91       	pop	r28
    1ad2:	08 95       	ret

00001ad4 <vTaskSwitchContext>:
    1ad4:	cf 93       	push	r28
    1ad6:	df 93       	push	r29
    1ad8:	1f 92       	push	r1
    1ada:	1f 92       	push	r1
    1adc:	cd b7       	in	r28, 0x3d	; 61
    1ade:	de b7       	in	r29, 0x3e	; 62
    1ae0:	80 91 3a 0c 	lds	r24, 0x0C3A	; 0x800c3a <uxSchedulerSuspended>
    1ae4:	88 23       	and	r24, r24
    1ae6:	21 f0       	breq	.+8      	; 0x1af0 <vTaskSwitchContext+0x1c>
    1ae8:	81 e0       	ldi	r24, 0x01	; 1
    1aea:	80 93 37 0c 	sts	0x0C37, r24	; 0x800c37 <xYieldPending>
    1aee:	7b c0       	rjmp	.+246    	; 0x1be6 <vTaskSwitchContext+0x112>
    1af0:	10 92 37 0c 	sts	0x0C37, r1	; 0x800c37 <xYieldPending>
    1af4:	80 91 e2 0b 	lds	r24, 0x0BE2	; 0x800be2 <pxCurrentTCB>
    1af8:	90 91 e3 0b 	lds	r25, 0x0BE3	; 0x800be3 <pxCurrentTCB+0x1>
    1afc:	fc 01       	movw	r30, r24
    1afe:	20 81       	ld	r18, Z
    1b00:	31 81       	ldd	r19, Z+1	; 0x01
    1b02:	80 91 e2 0b 	lds	r24, 0x0BE2	; 0x800be2 <pxCurrentTCB>
    1b06:	90 91 e3 0b 	lds	r25, 0x0BE3	; 0x800be3 <pxCurrentTCB+0x1>
    1b0a:	fc 01       	movw	r30, r24
    1b0c:	87 89       	ldd	r24, Z+23	; 0x17
    1b0e:	90 8d       	ldd	r25, Z+24	; 0x18
    1b10:	82 17       	cp	r24, r18
    1b12:	93 07       	cpc	r25, r19
    1b14:	68 f0       	brcs	.+26     	; 0x1b30 <vTaskSwitchContext+0x5c>
    1b16:	80 91 e2 0b 	lds	r24, 0x0BE2	; 0x800be2 <pxCurrentTCB>
    1b1a:	90 91 e3 0b 	lds	r25, 0x0BE3	; 0x800be3 <pxCurrentTCB+0x1>
    1b1e:	9c 01       	movw	r18, r24
    1b20:	27 5e       	subi	r18, 0xE7	; 231
    1b22:	3f 4f       	sbci	r19, 0xFF	; 255
    1b24:	80 91 e2 0b 	lds	r24, 0x0BE2	; 0x800be2 <pxCurrentTCB>
    1b28:	90 91 e3 0b 	lds	r25, 0x0BE3	; 0x800be3 <pxCurrentTCB+0x1>
    1b2c:	b9 01       	movw	r22, r18
    1b2e:	48 d4       	rcall	.+2192   	; 0x23c0 <vApplicationStackOverflowHook>
    1b30:	05 c0       	rjmp	.+10     	; 0x1b3c <vTaskSwitchContext+0x68>
    1b32:	80 91 34 0c 	lds	r24, 0x0C34	; 0x800c34 <uxTopReadyPriority>
    1b36:	81 50       	subi	r24, 0x01	; 1
    1b38:	80 93 34 0c 	sts	0x0C34, r24	; 0x800c34 <uxTopReadyPriority>
    1b3c:	80 91 34 0c 	lds	r24, 0x0C34	; 0x800c34 <uxTopReadyPriority>
    1b40:	28 2f       	mov	r18, r24
    1b42:	30 e0       	ldi	r19, 0x00	; 0
    1b44:	c9 01       	movw	r24, r18
    1b46:	88 0f       	add	r24, r24
    1b48:	99 1f       	adc	r25, r25
    1b4a:	88 0f       	add	r24, r24
    1b4c:	99 1f       	adc	r25, r25
    1b4e:	88 0f       	add	r24, r24
    1b50:	99 1f       	adc	r25, r25
    1b52:	82 0f       	add	r24, r18
    1b54:	93 1f       	adc	r25, r19
    1b56:	8c 51       	subi	r24, 0x1C	; 28
    1b58:	94 4f       	sbci	r25, 0xF4	; 244
    1b5a:	fc 01       	movw	r30, r24
    1b5c:	80 81       	ld	r24, Z
    1b5e:	88 23       	and	r24, r24
    1b60:	41 f3       	breq	.-48     	; 0x1b32 <vTaskSwitchContext+0x5e>
    1b62:	80 91 34 0c 	lds	r24, 0x0C34	; 0x800c34 <uxTopReadyPriority>
    1b66:	28 2f       	mov	r18, r24
    1b68:	30 e0       	ldi	r19, 0x00	; 0
    1b6a:	c9 01       	movw	r24, r18
    1b6c:	88 0f       	add	r24, r24
    1b6e:	99 1f       	adc	r25, r25
    1b70:	88 0f       	add	r24, r24
    1b72:	99 1f       	adc	r25, r25
    1b74:	88 0f       	add	r24, r24
    1b76:	99 1f       	adc	r25, r25
    1b78:	82 0f       	add	r24, r18
    1b7a:	93 1f       	adc	r25, r19
    1b7c:	8c 51       	subi	r24, 0x1C	; 28
    1b7e:	94 4f       	sbci	r25, 0xF4	; 244
    1b80:	9a 83       	std	Y+2, r25	; 0x02
    1b82:	89 83       	std	Y+1, r24	; 0x01
    1b84:	89 81       	ldd	r24, Y+1	; 0x01
    1b86:	9a 81       	ldd	r25, Y+2	; 0x02
    1b88:	fc 01       	movw	r30, r24
    1b8a:	81 81       	ldd	r24, Z+1	; 0x01
    1b8c:	92 81       	ldd	r25, Z+2	; 0x02
    1b8e:	fc 01       	movw	r30, r24
    1b90:	22 81       	ldd	r18, Z+2	; 0x02
    1b92:	33 81       	ldd	r19, Z+3	; 0x03
    1b94:	89 81       	ldd	r24, Y+1	; 0x01
    1b96:	9a 81       	ldd	r25, Y+2	; 0x02
    1b98:	fc 01       	movw	r30, r24
    1b9a:	32 83       	std	Z+2, r19	; 0x02
    1b9c:	21 83       	std	Z+1, r18	; 0x01
    1b9e:	89 81       	ldd	r24, Y+1	; 0x01
    1ba0:	9a 81       	ldd	r25, Y+2	; 0x02
    1ba2:	fc 01       	movw	r30, r24
    1ba4:	21 81       	ldd	r18, Z+1	; 0x01
    1ba6:	32 81       	ldd	r19, Z+2	; 0x02
    1ba8:	89 81       	ldd	r24, Y+1	; 0x01
    1baa:	9a 81       	ldd	r25, Y+2	; 0x02
    1bac:	03 96       	adiw	r24, 0x03	; 3
    1bae:	28 17       	cp	r18, r24
    1bb0:	39 07       	cpc	r19, r25
    1bb2:	69 f4       	brne	.+26     	; 0x1bce <vTaskSwitchContext+0xfa>
    1bb4:	89 81       	ldd	r24, Y+1	; 0x01
    1bb6:	9a 81       	ldd	r25, Y+2	; 0x02
    1bb8:	fc 01       	movw	r30, r24
    1bba:	81 81       	ldd	r24, Z+1	; 0x01
    1bbc:	92 81       	ldd	r25, Z+2	; 0x02
    1bbe:	fc 01       	movw	r30, r24
    1bc0:	22 81       	ldd	r18, Z+2	; 0x02
    1bc2:	33 81       	ldd	r19, Z+3	; 0x03
    1bc4:	89 81       	ldd	r24, Y+1	; 0x01
    1bc6:	9a 81       	ldd	r25, Y+2	; 0x02
    1bc8:	fc 01       	movw	r30, r24
    1bca:	32 83       	std	Z+2, r19	; 0x02
    1bcc:	21 83       	std	Z+1, r18	; 0x01
    1bce:	89 81       	ldd	r24, Y+1	; 0x01
    1bd0:	9a 81       	ldd	r25, Y+2	; 0x02
    1bd2:	fc 01       	movw	r30, r24
    1bd4:	81 81       	ldd	r24, Z+1	; 0x01
    1bd6:	92 81       	ldd	r25, Z+2	; 0x02
    1bd8:	fc 01       	movw	r30, r24
    1bda:	86 81       	ldd	r24, Z+6	; 0x06
    1bdc:	97 81       	ldd	r25, Z+7	; 0x07
    1bde:	90 93 e3 0b 	sts	0x0BE3, r25	; 0x800be3 <pxCurrentTCB+0x1>
    1be2:	80 93 e2 0b 	sts	0x0BE2, r24	; 0x800be2 <pxCurrentTCB>
    1be6:	0f 90       	pop	r0
    1be8:	0f 90       	pop	r0
    1bea:	df 91       	pop	r29
    1bec:	cf 91       	pop	r28
    1bee:	08 95       	ret

00001bf0 <vTaskPlaceOnEventList>:
    1bf0:	cf 93       	push	r28
    1bf2:	df 93       	push	r29
    1bf4:	00 d0       	rcall	.+0      	; 0x1bf6 <vTaskPlaceOnEventList+0x6>
    1bf6:	00 d0       	rcall	.+0      	; 0x1bf8 <vTaskPlaceOnEventList+0x8>
    1bf8:	cd b7       	in	r28, 0x3d	; 61
    1bfa:	de b7       	in	r29, 0x3e	; 62
    1bfc:	9c 83       	std	Y+4, r25	; 0x04
    1bfe:	8b 83       	std	Y+3, r24	; 0x03
    1c00:	7e 83       	std	Y+6, r23	; 0x06
    1c02:	6d 83       	std	Y+5, r22	; 0x05
    1c04:	80 91 e2 0b 	lds	r24, 0x0BE2	; 0x800be2 <pxCurrentTCB>
    1c08:	90 91 e3 0b 	lds	r25, 0x0BE3	; 0x800be3 <pxCurrentTCB+0x1>
    1c0c:	9c 01       	movw	r18, r24
    1c0e:	24 5f       	subi	r18, 0xF4	; 244
    1c10:	3f 4f       	sbci	r19, 0xFF	; 255
    1c12:	8b 81       	ldd	r24, Y+3	; 0x03
    1c14:	9c 81       	ldd	r25, Y+4	; 0x04
    1c16:	b9 01       	movw	r22, r18
    1c18:	0e 94 3c 01 	call	0x278	; 0x278 <vListInsert>
    1c1c:	80 91 e2 0b 	lds	r24, 0x0BE2	; 0x800be2 <pxCurrentTCB>
    1c20:	90 91 e3 0b 	lds	r25, 0x0BE3	; 0x800be3 <pxCurrentTCB+0x1>
    1c24:	02 96       	adiw	r24, 0x02	; 2
    1c26:	0e 94 b3 01 	call	0x366	; 0x366 <uxListRemove>
    1c2a:	20 91 32 0c 	lds	r18, 0x0C32	; 0x800c32 <xTickCount>
    1c2e:	30 91 33 0c 	lds	r19, 0x0C33	; 0x800c33 <xTickCount+0x1>
    1c32:	8d 81       	ldd	r24, Y+5	; 0x05
    1c34:	9e 81       	ldd	r25, Y+6	; 0x06
    1c36:	82 0f       	add	r24, r18
    1c38:	93 1f       	adc	r25, r19
    1c3a:	9a 83       	std	Y+2, r25	; 0x02
    1c3c:	89 83       	std	Y+1, r24	; 0x01
    1c3e:	89 81       	ldd	r24, Y+1	; 0x01
    1c40:	9a 81       	ldd	r25, Y+2	; 0x02
    1c42:	00 d2       	rcall	.+1024   	; 0x2044 <prvAddCurrentTaskToDelayedList>
    1c44:	26 96       	adiw	r28, 0x06	; 6
    1c46:	0f b6       	in	r0, 0x3f	; 63
    1c48:	f8 94       	cli
    1c4a:	de bf       	out	0x3e, r29	; 62
    1c4c:	0f be       	out	0x3f, r0	; 63
    1c4e:	cd bf       	out	0x3d, r28	; 61
    1c50:	df 91       	pop	r29
    1c52:	cf 91       	pop	r28
    1c54:	08 95       	ret

00001c56 <xTaskRemoveFromEventList>:
    1c56:	cf 93       	push	r28
    1c58:	df 93       	push	r29
    1c5a:	00 d0       	rcall	.+0      	; 0x1c5c <xTaskRemoveFromEventList+0x6>
    1c5c:	1f 92       	push	r1
    1c5e:	1f 92       	push	r1
    1c60:	cd b7       	in	r28, 0x3d	; 61
    1c62:	de b7       	in	r29, 0x3e	; 62
    1c64:	9d 83       	std	Y+5, r25	; 0x05
    1c66:	8c 83       	std	Y+4, r24	; 0x04
    1c68:	8c 81       	ldd	r24, Y+4	; 0x04
    1c6a:	9d 81       	ldd	r25, Y+5	; 0x05
    1c6c:	fc 01       	movw	r30, r24
    1c6e:	85 81       	ldd	r24, Z+5	; 0x05
    1c70:	96 81       	ldd	r25, Z+6	; 0x06
    1c72:	fc 01       	movw	r30, r24
    1c74:	86 81       	ldd	r24, Z+6	; 0x06
    1c76:	97 81       	ldd	r25, Z+7	; 0x07
    1c78:	9b 83       	std	Y+3, r25	; 0x03
    1c7a:	8a 83       	std	Y+2, r24	; 0x02
    1c7c:	8a 81       	ldd	r24, Y+2	; 0x02
    1c7e:	9b 81       	ldd	r25, Y+3	; 0x03
    1c80:	0c 96       	adiw	r24, 0x0c	; 12
    1c82:	0e 94 b3 01 	call	0x366	; 0x366 <uxListRemove>
    1c86:	80 91 3a 0c 	lds	r24, 0x0C3A	; 0x800c3a <uxSchedulerSuspended>
    1c8a:	88 23       	and	r24, r24
    1c8c:	69 f5       	brne	.+90     	; 0x1ce8 <xTaskRemoveFromEventList+0x92>
    1c8e:	8a 81       	ldd	r24, Y+2	; 0x02
    1c90:	9b 81       	ldd	r25, Y+3	; 0x03
    1c92:	02 96       	adiw	r24, 0x02	; 2
    1c94:	0e 94 b3 01 	call	0x366	; 0x366 <uxListRemove>
    1c98:	8a 81       	ldd	r24, Y+2	; 0x02
    1c9a:	9b 81       	ldd	r25, Y+3	; 0x03
    1c9c:	fc 01       	movw	r30, r24
    1c9e:	96 89       	ldd	r25, Z+22	; 0x16
    1ca0:	80 91 34 0c 	lds	r24, 0x0C34	; 0x800c34 <uxTopReadyPriority>
    1ca4:	89 17       	cp	r24, r25
    1ca6:	30 f4       	brcc	.+12     	; 0x1cb4 <xTaskRemoveFromEventList+0x5e>
    1ca8:	8a 81       	ldd	r24, Y+2	; 0x02
    1caa:	9b 81       	ldd	r25, Y+3	; 0x03
    1cac:	fc 01       	movw	r30, r24
    1cae:	86 89       	ldd	r24, Z+22	; 0x16
    1cb0:	80 93 34 0c 	sts	0x0C34, r24	; 0x800c34 <uxTopReadyPriority>
    1cb4:	8a 81       	ldd	r24, Y+2	; 0x02
    1cb6:	9b 81       	ldd	r25, Y+3	; 0x03
    1cb8:	ac 01       	movw	r20, r24
    1cba:	4e 5f       	subi	r20, 0xFE	; 254
    1cbc:	5f 4f       	sbci	r21, 0xFF	; 255
    1cbe:	8a 81       	ldd	r24, Y+2	; 0x02
    1cc0:	9b 81       	ldd	r25, Y+3	; 0x03
    1cc2:	fc 01       	movw	r30, r24
    1cc4:	86 89       	ldd	r24, Z+22	; 0x16
    1cc6:	28 2f       	mov	r18, r24
    1cc8:	30 e0       	ldi	r19, 0x00	; 0
    1cca:	c9 01       	movw	r24, r18
    1ccc:	88 0f       	add	r24, r24
    1cce:	99 1f       	adc	r25, r25
    1cd0:	88 0f       	add	r24, r24
    1cd2:	99 1f       	adc	r25, r25
    1cd4:	88 0f       	add	r24, r24
    1cd6:	99 1f       	adc	r25, r25
    1cd8:	82 0f       	add	r24, r18
    1cda:	93 1f       	adc	r25, r19
    1cdc:	8c 51       	subi	r24, 0x1C	; 28
    1cde:	94 4f       	sbci	r25, 0xF4	; 244
    1ce0:	ba 01       	movw	r22, r20
    1ce2:	0e 94 ef 00 	call	0x1de	; 0x1de <vListInsertEnd>
    1ce6:	08 c0       	rjmp	.+16     	; 0x1cf8 <xTaskRemoveFromEventList+0xa2>
    1ce8:	8a 81       	ldd	r24, Y+2	; 0x02
    1cea:	9b 81       	ldd	r25, Y+3	; 0x03
    1cec:	0c 96       	adiw	r24, 0x0c	; 12
    1cee:	bc 01       	movw	r22, r24
    1cf0:	8e e1       	ldi	r24, 0x1E	; 30
    1cf2:	9c e0       	ldi	r25, 0x0C	; 12
    1cf4:	0e 94 ef 00 	call	0x1de	; 0x1de <vListInsertEnd>
    1cf8:	8a 81       	ldd	r24, Y+2	; 0x02
    1cfa:	9b 81       	ldd	r25, Y+3	; 0x03
    1cfc:	fc 01       	movw	r30, r24
    1cfe:	26 89       	ldd	r18, Z+22	; 0x16
    1d00:	80 91 e2 0b 	lds	r24, 0x0BE2	; 0x800be2 <pxCurrentTCB>
    1d04:	90 91 e3 0b 	lds	r25, 0x0BE3	; 0x800be3 <pxCurrentTCB+0x1>
    1d08:	fc 01       	movw	r30, r24
    1d0a:	86 89       	ldd	r24, Z+22	; 0x16
    1d0c:	82 17       	cp	r24, r18
    1d0e:	30 f4       	brcc	.+12     	; 0x1d1c <xTaskRemoveFromEventList+0xc6>
    1d10:	81 e0       	ldi	r24, 0x01	; 1
    1d12:	89 83       	std	Y+1, r24	; 0x01
    1d14:	81 e0       	ldi	r24, 0x01	; 1
    1d16:	80 93 37 0c 	sts	0x0C37, r24	; 0x800c37 <xYieldPending>
    1d1a:	01 c0       	rjmp	.+2      	; 0x1d1e <xTaskRemoveFromEventList+0xc8>
    1d1c:	19 82       	std	Y+1, r1	; 0x01
    1d1e:	89 81       	ldd	r24, Y+1	; 0x01
    1d20:	0f 90       	pop	r0
    1d22:	0f 90       	pop	r0
    1d24:	0f 90       	pop	r0
    1d26:	0f 90       	pop	r0
    1d28:	0f 90       	pop	r0
    1d2a:	df 91       	pop	r29
    1d2c:	cf 91       	pop	r28
    1d2e:	08 95       	ret

00001d30 <vTaskSetTimeOutState>:
    1d30:	cf 93       	push	r28
    1d32:	df 93       	push	r29
    1d34:	1f 92       	push	r1
    1d36:	1f 92       	push	r1
    1d38:	cd b7       	in	r28, 0x3d	; 61
    1d3a:	de b7       	in	r29, 0x3e	; 62
    1d3c:	9a 83       	std	Y+2, r25	; 0x02
    1d3e:	89 83       	std	Y+1, r24	; 0x01
    1d40:	20 91 38 0c 	lds	r18, 0x0C38	; 0x800c38 <xNumOfOverflows>
    1d44:	89 81       	ldd	r24, Y+1	; 0x01
    1d46:	9a 81       	ldd	r25, Y+2	; 0x02
    1d48:	fc 01       	movw	r30, r24
    1d4a:	20 83       	st	Z, r18
    1d4c:	20 91 32 0c 	lds	r18, 0x0C32	; 0x800c32 <xTickCount>
    1d50:	30 91 33 0c 	lds	r19, 0x0C33	; 0x800c33 <xTickCount+0x1>
    1d54:	89 81       	ldd	r24, Y+1	; 0x01
    1d56:	9a 81       	ldd	r25, Y+2	; 0x02
    1d58:	fc 01       	movw	r30, r24
    1d5a:	32 83       	std	Z+2, r19	; 0x02
    1d5c:	21 83       	std	Z+1, r18	; 0x01
    1d5e:	0f 90       	pop	r0
    1d60:	0f 90       	pop	r0
    1d62:	df 91       	pop	r29
    1d64:	cf 91       	pop	r28
    1d66:	08 95       	ret

00001d68 <xTaskCheckForTimeOut>:
    1d68:	cf 93       	push	r28
    1d6a:	df 93       	push	r29
    1d6c:	cd b7       	in	r28, 0x3d	; 61
    1d6e:	de b7       	in	r29, 0x3e	; 62
    1d70:	27 97       	sbiw	r28, 0x07	; 7
    1d72:	0f b6       	in	r0, 0x3f	; 63
    1d74:	f8 94       	cli
    1d76:	de bf       	out	0x3e, r29	; 62
    1d78:	0f be       	out	0x3f, r0	; 63
    1d7a:	cd bf       	out	0x3d, r28	; 61
    1d7c:	9d 83       	std	Y+5, r25	; 0x05
    1d7e:	8c 83       	std	Y+4, r24	; 0x04
    1d80:	7f 83       	std	Y+7, r23	; 0x07
    1d82:	6e 83       	std	Y+6, r22	; 0x06
    1d84:	0f b6       	in	r0, 0x3f	; 63
    1d86:	f8 94       	cli
    1d88:	0f 92       	push	r0
    1d8a:	80 91 32 0c 	lds	r24, 0x0C32	; 0x800c32 <xTickCount>
    1d8e:	90 91 33 0c 	lds	r25, 0x0C33	; 0x800c33 <xTickCount+0x1>
    1d92:	9b 83       	std	Y+3, r25	; 0x03
    1d94:	8a 83       	std	Y+2, r24	; 0x02
    1d96:	8c 81       	ldd	r24, Y+4	; 0x04
    1d98:	9d 81       	ldd	r25, Y+5	; 0x05
    1d9a:	fc 01       	movw	r30, r24
    1d9c:	90 81       	ld	r25, Z
    1d9e:	80 91 38 0c 	lds	r24, 0x0C38	; 0x800c38 <xNumOfOverflows>
    1da2:	98 17       	cp	r25, r24
    1da4:	69 f0       	breq	.+26     	; 0x1dc0 <xTaskCheckForTimeOut+0x58>
    1da6:	8c 81       	ldd	r24, Y+4	; 0x04
    1da8:	9d 81       	ldd	r25, Y+5	; 0x05
    1daa:	fc 01       	movw	r30, r24
    1dac:	21 81       	ldd	r18, Z+1	; 0x01
    1dae:	32 81       	ldd	r19, Z+2	; 0x02
    1db0:	8a 81       	ldd	r24, Y+2	; 0x02
    1db2:	9b 81       	ldd	r25, Y+3	; 0x03
    1db4:	82 17       	cp	r24, r18
    1db6:	93 07       	cpc	r25, r19
    1db8:	18 f0       	brcs	.+6      	; 0x1dc0 <xTaskCheckForTimeOut+0x58>
    1dba:	81 e0       	ldi	r24, 0x01	; 1
    1dbc:	89 83       	std	Y+1, r24	; 0x01
    1dbe:	2f c0       	rjmp	.+94     	; 0x1e1e <xTaskCheckForTimeOut+0xb6>
    1dc0:	8c 81       	ldd	r24, Y+4	; 0x04
    1dc2:	9d 81       	ldd	r25, Y+5	; 0x05
    1dc4:	fc 01       	movw	r30, r24
    1dc6:	81 81       	ldd	r24, Z+1	; 0x01
    1dc8:	92 81       	ldd	r25, Z+2	; 0x02
    1dca:	2a 81       	ldd	r18, Y+2	; 0x02
    1dcc:	3b 81       	ldd	r19, Y+3	; 0x03
    1dce:	28 1b       	sub	r18, r24
    1dd0:	39 0b       	sbc	r19, r25
    1dd2:	8e 81       	ldd	r24, Y+6	; 0x06
    1dd4:	9f 81       	ldd	r25, Y+7	; 0x07
    1dd6:	fc 01       	movw	r30, r24
    1dd8:	80 81       	ld	r24, Z
    1dda:	91 81       	ldd	r25, Z+1	; 0x01
    1ddc:	28 17       	cp	r18, r24
    1dde:	39 07       	cpc	r19, r25
    1de0:	e0 f4       	brcc	.+56     	; 0x1e1a <xTaskCheckForTimeOut+0xb2>
    1de2:	8e 81       	ldd	r24, Y+6	; 0x06
    1de4:	9f 81       	ldd	r25, Y+7	; 0x07
    1de6:	fc 01       	movw	r30, r24
    1de8:	20 81       	ld	r18, Z
    1dea:	31 81       	ldd	r19, Z+1	; 0x01
    1dec:	8c 81       	ldd	r24, Y+4	; 0x04
    1dee:	9d 81       	ldd	r25, Y+5	; 0x05
    1df0:	fc 01       	movw	r30, r24
    1df2:	41 81       	ldd	r20, Z+1	; 0x01
    1df4:	52 81       	ldd	r21, Z+2	; 0x02
    1df6:	8a 81       	ldd	r24, Y+2	; 0x02
    1df8:	9b 81       	ldd	r25, Y+3	; 0x03
    1dfa:	ba 01       	movw	r22, r20
    1dfc:	68 1b       	sub	r22, r24
    1dfe:	79 0b       	sbc	r23, r25
    1e00:	cb 01       	movw	r24, r22
    1e02:	28 0f       	add	r18, r24
    1e04:	39 1f       	adc	r19, r25
    1e06:	8e 81       	ldd	r24, Y+6	; 0x06
    1e08:	9f 81       	ldd	r25, Y+7	; 0x07
    1e0a:	fc 01       	movw	r30, r24
    1e0c:	31 83       	std	Z+1, r19	; 0x01
    1e0e:	20 83       	st	Z, r18
    1e10:	8c 81       	ldd	r24, Y+4	; 0x04
    1e12:	9d 81       	ldd	r25, Y+5	; 0x05
    1e14:	8d df       	rcall	.-230    	; 0x1d30 <vTaskSetTimeOutState>
    1e16:	19 82       	std	Y+1, r1	; 0x01
    1e18:	02 c0       	rjmp	.+4      	; 0x1e1e <xTaskCheckForTimeOut+0xb6>
    1e1a:	81 e0       	ldi	r24, 0x01	; 1
    1e1c:	89 83       	std	Y+1, r24	; 0x01
    1e1e:	0f 90       	pop	r0
    1e20:	0f be       	out	0x3f, r0	; 63
    1e22:	89 81       	ldd	r24, Y+1	; 0x01
    1e24:	27 96       	adiw	r28, 0x07	; 7
    1e26:	0f b6       	in	r0, 0x3f	; 63
    1e28:	f8 94       	cli
    1e2a:	de bf       	out	0x3e, r29	; 62
    1e2c:	0f be       	out	0x3f, r0	; 63
    1e2e:	cd bf       	out	0x3d, r28	; 61
    1e30:	df 91       	pop	r29
    1e32:	cf 91       	pop	r28
    1e34:	08 95       	ret

00001e36 <vTaskMissedYield>:
    1e36:	cf 93       	push	r28
    1e38:	df 93       	push	r29
    1e3a:	cd b7       	in	r28, 0x3d	; 61
    1e3c:	de b7       	in	r29, 0x3e	; 62
    1e3e:	81 e0       	ldi	r24, 0x01	; 1
    1e40:	80 93 37 0c 	sts	0x0C37, r24	; 0x800c37 <xYieldPending>
    1e44:	df 91       	pop	r29
    1e46:	cf 91       	pop	r28
    1e48:	08 95       	ret

00001e4a <prvInitialiseTCBVariables>:
    1e4a:	0f 93       	push	r16
    1e4c:	1f 93       	push	r17
    1e4e:	cf 93       	push	r28
    1e50:	df 93       	push	r29
    1e52:	cd b7       	in	r28, 0x3d	; 61
    1e54:	de b7       	in	r29, 0x3e	; 62
    1e56:	2a 97       	sbiw	r28, 0x0a	; 10
    1e58:	0f b6       	in	r0, 0x3f	; 63
    1e5a:	f8 94       	cli
    1e5c:	de bf       	out	0x3e, r29	; 62
    1e5e:	0f be       	out	0x3f, r0	; 63
    1e60:	cd bf       	out	0x3d, r28	; 61
    1e62:	9b 83       	std	Y+3, r25	; 0x03
    1e64:	8a 83       	std	Y+2, r24	; 0x02
    1e66:	7d 83       	std	Y+5, r23	; 0x05
    1e68:	6c 83       	std	Y+4, r22	; 0x04
    1e6a:	4e 83       	std	Y+6, r20	; 0x06
    1e6c:	38 87       	std	Y+8, r19	; 0x08
    1e6e:	2f 83       	std	Y+7, r18	; 0x07
    1e70:	1a 87       	std	Y+10, r17	; 0x0a
    1e72:	09 87       	std	Y+9, r16	; 0x09
    1e74:	19 82       	std	Y+1, r1	; 0x01
    1e76:	22 c0       	rjmp	.+68     	; 0x1ebc <prvInitialiseTCBVariables+0x72>
    1e78:	89 81       	ldd	r24, Y+1	; 0x01
    1e7a:	88 2f       	mov	r24, r24
    1e7c:	90 e0       	ldi	r25, 0x00	; 0
    1e7e:	29 81       	ldd	r18, Y+1	; 0x01
    1e80:	22 2f       	mov	r18, r18
    1e82:	30 e0       	ldi	r19, 0x00	; 0
    1e84:	4c 81       	ldd	r20, Y+4	; 0x04
    1e86:	5d 81       	ldd	r21, Y+5	; 0x05
    1e88:	24 0f       	add	r18, r20
    1e8a:	35 1f       	adc	r19, r21
    1e8c:	f9 01       	movw	r30, r18
    1e8e:	40 81       	ld	r20, Z
    1e90:	2a 81       	ldd	r18, Y+2	; 0x02
    1e92:	3b 81       	ldd	r19, Y+3	; 0x03
    1e94:	82 0f       	add	r24, r18
    1e96:	93 1f       	adc	r25, r19
    1e98:	49 96       	adiw	r24, 0x19	; 25
    1e9a:	fc 01       	movw	r30, r24
    1e9c:	40 83       	st	Z, r20
    1e9e:	89 81       	ldd	r24, Y+1	; 0x01
    1ea0:	88 2f       	mov	r24, r24
    1ea2:	90 e0       	ldi	r25, 0x00	; 0
    1ea4:	2c 81       	ldd	r18, Y+4	; 0x04
    1ea6:	3d 81       	ldd	r19, Y+5	; 0x05
    1ea8:	82 0f       	add	r24, r18
    1eaa:	93 1f       	adc	r25, r19
    1eac:	fc 01       	movw	r30, r24
    1eae:	80 81       	ld	r24, Z
    1eb0:	88 23       	and	r24, r24
    1eb2:	09 f4       	brne	.+2      	; 0x1eb6 <prvInitialiseTCBVariables+0x6c>
    1eb4:	06 c0       	rjmp	.+12     	; 0x1ec2 <prvInitialiseTCBVariables+0x78>
    1eb6:	89 81       	ldd	r24, Y+1	; 0x01
    1eb8:	8f 5f       	subi	r24, 0xFF	; 255
    1eba:	89 83       	std	Y+1, r24	; 0x01
    1ebc:	89 81       	ldd	r24, Y+1	; 0x01
    1ebe:	88 30       	cpi	r24, 0x08	; 8
    1ec0:	d8 f2       	brcs	.-74     	; 0x1e78 <prvInitialiseTCBVariables+0x2e>
    1ec2:	8a 81       	ldd	r24, Y+2	; 0x02
    1ec4:	9b 81       	ldd	r25, Y+3	; 0x03
    1ec6:	fc 01       	movw	r30, r24
    1ec8:	10 a2       	std	Z+32, r1	; 0x20
    1eca:	8e 81       	ldd	r24, Y+6	; 0x06
    1ecc:	84 30       	cpi	r24, 0x04	; 4
    1ece:	10 f0       	brcs	.+4      	; 0x1ed4 <prvInitialiseTCBVariables+0x8a>
    1ed0:	83 e0       	ldi	r24, 0x03	; 3
    1ed2:	8e 83       	std	Y+6, r24	; 0x06
    1ed4:	8a 81       	ldd	r24, Y+2	; 0x02
    1ed6:	9b 81       	ldd	r25, Y+3	; 0x03
    1ed8:	2e 81       	ldd	r18, Y+6	; 0x06
    1eda:	fc 01       	movw	r30, r24
    1edc:	26 8b       	std	Z+22, r18	; 0x16
    1ede:	8a 81       	ldd	r24, Y+2	; 0x02
    1ee0:	9b 81       	ldd	r25, Y+3	; 0x03
    1ee2:	02 96       	adiw	r24, 0x02	; 2
    1ee4:	0e 94 dd 00 	call	0x1ba	; 0x1ba <vListInitialiseItem>
    1ee8:	8a 81       	ldd	r24, Y+2	; 0x02
    1eea:	9b 81       	ldd	r25, Y+3	; 0x03
    1eec:	0c 96       	adiw	r24, 0x0c	; 12
    1eee:	0e 94 dd 00 	call	0x1ba	; 0x1ba <vListInitialiseItem>
    1ef2:	8a 81       	ldd	r24, Y+2	; 0x02
    1ef4:	9b 81       	ldd	r25, Y+3	; 0x03
    1ef6:	2a 81       	ldd	r18, Y+2	; 0x02
    1ef8:	3b 81       	ldd	r19, Y+3	; 0x03
    1efa:	fc 01       	movw	r30, r24
    1efc:	31 87       	std	Z+9, r19	; 0x09
    1efe:	20 87       	std	Z+8, r18	; 0x08
    1f00:	8e 81       	ldd	r24, Y+6	; 0x06
    1f02:	88 2f       	mov	r24, r24
    1f04:	90 e0       	ldi	r25, 0x00	; 0
    1f06:	24 e0       	ldi	r18, 0x04	; 4
    1f08:	30 e0       	ldi	r19, 0x00	; 0
    1f0a:	28 1b       	sub	r18, r24
    1f0c:	39 0b       	sbc	r19, r25
    1f0e:	8a 81       	ldd	r24, Y+2	; 0x02
    1f10:	9b 81       	ldd	r25, Y+3	; 0x03
    1f12:	fc 01       	movw	r30, r24
    1f14:	35 87       	std	Z+13, r19	; 0x0d
    1f16:	24 87       	std	Z+12, r18	; 0x0c
    1f18:	8a 81       	ldd	r24, Y+2	; 0x02
    1f1a:	9b 81       	ldd	r25, Y+3	; 0x03
    1f1c:	2a 81       	ldd	r18, Y+2	; 0x02
    1f1e:	3b 81       	ldd	r19, Y+3	; 0x03
    1f20:	fc 01       	movw	r30, r24
    1f22:	33 8b       	std	Z+19, r19	; 0x13
    1f24:	22 8b       	std	Z+18, r18	; 0x12
    1f26:	8a 81       	ldd	r24, Y+2	; 0x02
    1f28:	9b 81       	ldd	r25, Y+3	; 0x03
    1f2a:	fc 01       	movw	r30, r24
    1f2c:	11 a2       	std	Z+33, r1	; 0x21
    1f2e:	12 a2       	std	Z+34, r1	; 0x22
    1f30:	13 a2       	std	Z+35, r1	; 0x23
    1f32:	14 a2       	std	Z+36, r1	; 0x24
    1f34:	8a 81       	ldd	r24, Y+2	; 0x02
    1f36:	9b 81       	ldd	r25, Y+3	; 0x03
    1f38:	fc 01       	movw	r30, r24
    1f3a:	15 a2       	std	Z+37, r1	; 0x25
    1f3c:	2a 96       	adiw	r28, 0x0a	; 10
    1f3e:	0f b6       	in	r0, 0x3f	; 63
    1f40:	f8 94       	cli
    1f42:	de bf       	out	0x3e, r29	; 62
    1f44:	0f be       	out	0x3f, r0	; 63
    1f46:	cd bf       	out	0x3d, r28	; 61
    1f48:	df 91       	pop	r29
    1f4a:	cf 91       	pop	r28
    1f4c:	1f 91       	pop	r17
    1f4e:	0f 91       	pop	r16
    1f50:	08 95       	ret

00001f52 <prvInitialiseTaskLists>:
    1f52:	cf 93       	push	r28
    1f54:	df 93       	push	r29
    1f56:	1f 92       	push	r1
    1f58:	cd b7       	in	r28, 0x3d	; 61
    1f5a:	de b7       	in	r29, 0x3e	; 62
    1f5c:	19 82       	std	Y+1, r1	; 0x01
    1f5e:	13 c0       	rjmp	.+38     	; 0x1f86 <prvInitialiseTaskLists+0x34>
    1f60:	89 81       	ldd	r24, Y+1	; 0x01
    1f62:	28 2f       	mov	r18, r24
    1f64:	30 e0       	ldi	r19, 0x00	; 0
    1f66:	c9 01       	movw	r24, r18
    1f68:	88 0f       	add	r24, r24
    1f6a:	99 1f       	adc	r25, r25
    1f6c:	88 0f       	add	r24, r24
    1f6e:	99 1f       	adc	r25, r25
    1f70:	88 0f       	add	r24, r24
    1f72:	99 1f       	adc	r25, r25
    1f74:	82 0f       	add	r24, r18
    1f76:	93 1f       	adc	r25, r19
    1f78:	8c 51       	subi	r24, 0x1C	; 28
    1f7a:	94 4f       	sbci	r25, 0xF4	; 244
    1f7c:	0e 94 a7 00 	call	0x14e	; 0x14e <vListInitialise>
    1f80:	89 81       	ldd	r24, Y+1	; 0x01
    1f82:	8f 5f       	subi	r24, 0xFF	; 255
    1f84:	89 83       	std	Y+1, r24	; 0x01
    1f86:	89 81       	ldd	r24, Y+1	; 0x01
    1f88:	84 30       	cpi	r24, 0x04	; 4
    1f8a:	50 f3       	brcs	.-44     	; 0x1f60 <prvInitialiseTaskLists+0xe>
    1f8c:	88 e0       	ldi	r24, 0x08	; 8
    1f8e:	9c e0       	ldi	r25, 0x0C	; 12
    1f90:	0e 94 a7 00 	call	0x14e	; 0x14e <vListInitialise>
    1f94:	81 e1       	ldi	r24, 0x11	; 17
    1f96:	9c e0       	ldi	r25, 0x0C	; 12
    1f98:	0e 94 a7 00 	call	0x14e	; 0x14e <vListInitialise>
    1f9c:	8e e1       	ldi	r24, 0x1E	; 30
    1f9e:	9c e0       	ldi	r25, 0x0C	; 12
    1fa0:	0e 94 a7 00 	call	0x14e	; 0x14e <vListInitialise>
    1fa4:	87 e2       	ldi	r24, 0x27	; 39
    1fa6:	9c e0       	ldi	r25, 0x0C	; 12
    1fa8:	0e 94 a7 00 	call	0x14e	; 0x14e <vListInitialise>
    1fac:	88 e0       	ldi	r24, 0x08	; 8
    1fae:	9c e0       	ldi	r25, 0x0C	; 12
    1fb0:	90 93 1b 0c 	sts	0x0C1B, r25	; 0x800c1b <pxDelayedTaskList+0x1>
    1fb4:	80 93 1a 0c 	sts	0x0C1A, r24	; 0x800c1a <pxDelayedTaskList>
    1fb8:	81 e1       	ldi	r24, 0x11	; 17
    1fba:	9c e0       	ldi	r25, 0x0C	; 12
    1fbc:	90 93 1d 0c 	sts	0x0C1D, r25	; 0x800c1d <pxOverflowDelayedTaskList+0x1>
    1fc0:	80 93 1c 0c 	sts	0x0C1C, r24	; 0x800c1c <pxOverflowDelayedTaskList>
    1fc4:	0f 90       	pop	r0
    1fc6:	df 91       	pop	r29
    1fc8:	cf 91       	pop	r28
    1fca:	08 95       	ret

00001fcc <prvCheckTasksWaitingTermination>:
    1fcc:	cf 93       	push	r28
    1fce:	df 93       	push	r29
    1fd0:	00 d0       	rcall	.+0      	; 0x1fd2 <prvCheckTasksWaitingTermination+0x6>
    1fd2:	cd b7       	in	r28, 0x3d	; 61
    1fd4:	de b7       	in	r29, 0x3e	; 62
    1fd6:	2c c0       	rjmp	.+88     	; 0x2030 <prvCheckTasksWaitingTermination+0x64>
    1fd8:	f8 db       	rcall	.-2064   	; 0x17ca <vTaskSuspendAll>
    1fda:	90 91 27 0c 	lds	r25, 0x0C27	; 0x800c27 <xTasksWaitingTermination>
    1fde:	81 e0       	ldi	r24, 0x01	; 1
    1fe0:	99 23       	and	r25, r25
    1fe2:	09 f0       	breq	.+2      	; 0x1fe6 <prvCheckTasksWaitingTermination+0x1a>
    1fe4:	80 e0       	ldi	r24, 0x00	; 0
    1fe6:	89 83       	std	Y+1, r24	; 0x01
    1fe8:	fc db       	rcall	.-2056   	; 0x17e2 <xTaskResumeAll>
    1fea:	89 81       	ldd	r24, Y+1	; 0x01
    1fec:	88 23       	and	r24, r24
    1fee:	01 f5       	brne	.+64     	; 0x2030 <prvCheckTasksWaitingTermination+0x64>
    1ff0:	0f b6       	in	r0, 0x3f	; 63
    1ff2:	f8 94       	cli
    1ff4:	0f 92       	push	r0
    1ff6:	80 91 2c 0c 	lds	r24, 0x0C2C	; 0x800c2c <xTasksWaitingTermination+0x5>
    1ffa:	90 91 2d 0c 	lds	r25, 0x0C2D	; 0x800c2d <xTasksWaitingTermination+0x6>
    1ffe:	fc 01       	movw	r30, r24
    2000:	86 81       	ldd	r24, Z+6	; 0x06
    2002:	97 81       	ldd	r25, Z+7	; 0x07
    2004:	9b 83       	std	Y+3, r25	; 0x03
    2006:	8a 83       	std	Y+2, r24	; 0x02
    2008:	8a 81       	ldd	r24, Y+2	; 0x02
    200a:	9b 81       	ldd	r25, Y+3	; 0x03
    200c:	02 96       	adiw	r24, 0x02	; 2
    200e:	0e 94 b3 01 	call	0x366	; 0x366 <uxListRemove>
    2012:	80 91 31 0c 	lds	r24, 0x0C31	; 0x800c31 <uxCurrentNumberOfTasks>
    2016:	81 50       	subi	r24, 0x01	; 1
    2018:	80 93 31 0c 	sts	0x0C31, r24	; 0x800c31 <uxCurrentNumberOfTasks>
    201c:	80 91 30 0c 	lds	r24, 0x0C30	; 0x800c30 <uxTasksDeleted>
    2020:	81 50       	subi	r24, 0x01	; 1
    2022:	80 93 30 0c 	sts	0x0C30, r24	; 0x800c30 <uxTasksDeleted>
    2026:	0f 90       	pop	r0
    2028:	0f be       	out	0x3f, r0	; 63
    202a:	8a 81       	ldd	r24, Y+2	; 0x02
    202c:	9b 81       	ldd	r25, Y+3	; 0x03
    202e:	98 d0       	rcall	.+304    	; 0x2160 <prvDeleteTCB>
    2030:	80 91 30 0c 	lds	r24, 0x0C30	; 0x800c30 <uxTasksDeleted>
    2034:	88 23       	and	r24, r24
    2036:	81 f6       	brne	.-96     	; 0x1fd8 <prvCheckTasksWaitingTermination+0xc>
    2038:	0f 90       	pop	r0
    203a:	0f 90       	pop	r0
    203c:	0f 90       	pop	r0
    203e:	df 91       	pop	r29
    2040:	cf 91       	pop	r28
    2042:	08 95       	ret

00002044 <prvAddCurrentTaskToDelayedList>:
    2044:	cf 93       	push	r28
    2046:	df 93       	push	r29
    2048:	1f 92       	push	r1
    204a:	1f 92       	push	r1
    204c:	cd b7       	in	r28, 0x3d	; 61
    204e:	de b7       	in	r29, 0x3e	; 62
    2050:	9a 83       	std	Y+2, r25	; 0x02
    2052:	89 83       	std	Y+1, r24	; 0x01
    2054:	80 91 e2 0b 	lds	r24, 0x0BE2	; 0x800be2 <pxCurrentTCB>
    2058:	90 91 e3 0b 	lds	r25, 0x0BE3	; 0x800be3 <pxCurrentTCB+0x1>
    205c:	29 81       	ldd	r18, Y+1	; 0x01
    205e:	3a 81       	ldd	r19, Y+2	; 0x02
    2060:	fc 01       	movw	r30, r24
    2062:	33 83       	std	Z+3, r19	; 0x03
    2064:	22 83       	std	Z+2, r18	; 0x02
    2066:	80 91 32 0c 	lds	r24, 0x0C32	; 0x800c32 <xTickCount>
    206a:	90 91 33 0c 	lds	r25, 0x0C33	; 0x800c33 <xTickCount+0x1>
    206e:	29 81       	ldd	r18, Y+1	; 0x01
    2070:	3a 81       	ldd	r19, Y+2	; 0x02
    2072:	28 17       	cp	r18, r24
    2074:	39 07       	cpc	r19, r25
    2076:	78 f4       	brcc	.+30     	; 0x2096 <prvAddCurrentTaskToDelayedList+0x52>
    2078:	80 91 e2 0b 	lds	r24, 0x0BE2	; 0x800be2 <pxCurrentTCB>
    207c:	90 91 e3 0b 	lds	r25, 0x0BE3	; 0x800be3 <pxCurrentTCB+0x1>
    2080:	9c 01       	movw	r18, r24
    2082:	2e 5f       	subi	r18, 0xFE	; 254
    2084:	3f 4f       	sbci	r19, 0xFF	; 255
    2086:	80 91 1c 0c 	lds	r24, 0x0C1C	; 0x800c1c <pxOverflowDelayedTaskList>
    208a:	90 91 1d 0c 	lds	r25, 0x0C1D	; 0x800c1d <pxOverflowDelayedTaskList+0x1>
    208e:	b9 01       	movw	r22, r18
    2090:	0e 94 3c 01 	call	0x278	; 0x278 <vListInsert>
    2094:	1d c0       	rjmp	.+58     	; 0x20d0 <prvAddCurrentTaskToDelayedList+0x8c>
    2096:	80 91 e2 0b 	lds	r24, 0x0BE2	; 0x800be2 <pxCurrentTCB>
    209a:	90 91 e3 0b 	lds	r25, 0x0BE3	; 0x800be3 <pxCurrentTCB+0x1>
    209e:	9c 01       	movw	r18, r24
    20a0:	2e 5f       	subi	r18, 0xFE	; 254
    20a2:	3f 4f       	sbci	r19, 0xFF	; 255
    20a4:	80 91 1a 0c 	lds	r24, 0x0C1A	; 0x800c1a <pxDelayedTaskList>
    20a8:	90 91 1b 0c 	lds	r25, 0x0C1B	; 0x800c1b <pxDelayedTaskList+0x1>
    20ac:	b9 01       	movw	r22, r18
    20ae:	0e 94 3c 01 	call	0x278	; 0x278 <vListInsert>
    20b2:	80 91 00 02 	lds	r24, 0x0200	; 0x800200 <__data_start>
    20b6:	90 91 01 02 	lds	r25, 0x0201	; 0x800201 <__data_start+0x1>
    20ba:	29 81       	ldd	r18, Y+1	; 0x01
    20bc:	3a 81       	ldd	r19, Y+2	; 0x02
    20be:	28 17       	cp	r18, r24
    20c0:	39 07       	cpc	r19, r25
    20c2:	30 f4       	brcc	.+12     	; 0x20d0 <prvAddCurrentTaskToDelayedList+0x8c>
    20c4:	89 81       	ldd	r24, Y+1	; 0x01
    20c6:	9a 81       	ldd	r25, Y+2	; 0x02
    20c8:	90 93 01 02 	sts	0x0201, r25	; 0x800201 <__data_start+0x1>
    20cc:	80 93 00 02 	sts	0x0200, r24	; 0x800200 <__data_start>
    20d0:	0f 90       	pop	r0
    20d2:	0f 90       	pop	r0
    20d4:	df 91       	pop	r29
    20d6:	cf 91       	pop	r28
    20d8:	08 95       	ret

000020da <prvAllocateTCBAndStack>:
    20da:	cf 93       	push	r28
    20dc:	df 93       	push	r29
    20de:	cd b7       	in	r28, 0x3d	; 61
    20e0:	de b7       	in	r29, 0x3e	; 62
    20e2:	28 97       	sbiw	r28, 0x08	; 8
    20e4:	0f b6       	in	r0, 0x3f	; 63
    20e6:	f8 94       	cli
    20e8:	de bf       	out	0x3e, r29	; 62
    20ea:	0f be       	out	0x3f, r0	; 63
    20ec:	cd bf       	out	0x3d, r28	; 61
    20ee:	9e 83       	std	Y+6, r25	; 0x06
    20f0:	8d 83       	std	Y+5, r24	; 0x05
    20f2:	78 87       	std	Y+8, r23	; 0x08
    20f4:	6f 83       	std	Y+7, r22	; 0x07
    20f6:	8f 81       	ldd	r24, Y+7	; 0x07
    20f8:	98 85       	ldd	r25, Y+8	; 0x08
    20fa:	89 2b       	or	r24, r25
    20fc:	29 f4       	brne	.+10     	; 0x2108 <prvAllocateTCBAndStack+0x2e>
    20fe:	8d 81       	ldd	r24, Y+5	; 0x05
    2100:	9e 81       	ldd	r25, Y+6	; 0x06
    2102:	0e 94 7c 05 	call	0xaf8	; 0xaf8 <pvPortMalloc>
    2106:	02 c0       	rjmp	.+4      	; 0x210c <prvAllocateTCBAndStack+0x32>
    2108:	8f 81       	ldd	r24, Y+7	; 0x07
    210a:	98 85       	ldd	r25, Y+8	; 0x08
    210c:	9c 83       	std	Y+4, r25	; 0x04
    210e:	8b 83       	std	Y+3, r24	; 0x03
    2110:	8b 81       	ldd	r24, Y+3	; 0x03
    2112:	9c 81       	ldd	r25, Y+4	; 0x04
    2114:	89 2b       	or	r24, r25
    2116:	b9 f0       	breq	.+46     	; 0x2146 <prvAllocateTCBAndStack+0x6c>
    2118:	86 e2       	ldi	r24, 0x26	; 38
    211a:	90 e0       	ldi	r25, 0x00	; 0
    211c:	0e 94 7c 05 	call	0xaf8	; 0xaf8 <pvPortMalloc>
    2120:	9a 83       	std	Y+2, r25	; 0x02
    2122:	89 83       	std	Y+1, r24	; 0x01
    2124:	89 81       	ldd	r24, Y+1	; 0x01
    2126:	9a 81       	ldd	r25, Y+2	; 0x02
    2128:	89 2b       	or	r24, r25
    212a:	41 f0       	breq	.+16     	; 0x213c <prvAllocateTCBAndStack+0x62>
    212c:	89 81       	ldd	r24, Y+1	; 0x01
    212e:	9a 81       	ldd	r25, Y+2	; 0x02
    2130:	2b 81       	ldd	r18, Y+3	; 0x03
    2132:	3c 81       	ldd	r19, Y+4	; 0x04
    2134:	fc 01       	movw	r30, r24
    2136:	30 8f       	std	Z+24, r19	; 0x18
    2138:	27 8b       	std	Z+23, r18	; 0x17
    213a:	07 c0       	rjmp	.+14     	; 0x214a <prvAllocateTCBAndStack+0x70>
    213c:	8b 81       	ldd	r24, Y+3	; 0x03
    213e:	9c 81       	ldd	r25, Y+4	; 0x04
    2140:	0e 94 cf 05 	call	0xb9e	; 0xb9e <vPortFree>
    2144:	02 c0       	rjmp	.+4      	; 0x214a <prvAllocateTCBAndStack+0x70>
    2146:	1a 82       	std	Y+2, r1	; 0x02
    2148:	19 82       	std	Y+1, r1	; 0x01
    214a:	89 81       	ldd	r24, Y+1	; 0x01
    214c:	9a 81       	ldd	r25, Y+2	; 0x02
    214e:	28 96       	adiw	r28, 0x08	; 8
    2150:	0f b6       	in	r0, 0x3f	; 63
    2152:	f8 94       	cli
    2154:	de bf       	out	0x3e, r29	; 62
    2156:	0f be       	out	0x3f, r0	; 63
    2158:	cd bf       	out	0x3d, r28	; 61
    215a:	df 91       	pop	r29
    215c:	cf 91       	pop	r28
    215e:	08 95       	ret

00002160 <prvDeleteTCB>:
    2160:	cf 93       	push	r28
    2162:	df 93       	push	r29
    2164:	1f 92       	push	r1
    2166:	1f 92       	push	r1
    2168:	cd b7       	in	r28, 0x3d	; 61
    216a:	de b7       	in	r29, 0x3e	; 62
    216c:	9a 83       	std	Y+2, r25	; 0x02
    216e:	89 83       	std	Y+1, r24	; 0x01
    2170:	89 81       	ldd	r24, Y+1	; 0x01
    2172:	9a 81       	ldd	r25, Y+2	; 0x02
    2174:	fc 01       	movw	r30, r24
    2176:	87 89       	ldd	r24, Z+23	; 0x17
    2178:	90 8d       	ldd	r25, Z+24	; 0x18
    217a:	0e 94 cf 05 	call	0xb9e	; 0xb9e <vPortFree>
    217e:	89 81       	ldd	r24, Y+1	; 0x01
    2180:	9a 81       	ldd	r25, Y+2	; 0x02
    2182:	0e 94 cf 05 	call	0xb9e	; 0xb9e <vPortFree>
    2186:	0f 90       	pop	r0
    2188:	0f 90       	pop	r0
    218a:	df 91       	pop	r29
    218c:	cf 91       	pop	r28
    218e:	08 95       	ret

00002190 <prvResetNextTaskUnblockTime>:
    2190:	cf 93       	push	r28
    2192:	df 93       	push	r29
    2194:	1f 92       	push	r1
    2196:	1f 92       	push	r1
    2198:	cd b7       	in	r28, 0x3d	; 61
    219a:	de b7       	in	r29, 0x3e	; 62
    219c:	80 91 1a 0c 	lds	r24, 0x0C1A	; 0x800c1a <pxDelayedTaskList>
    21a0:	90 91 1b 0c 	lds	r25, 0x0C1B	; 0x800c1b <pxDelayedTaskList+0x1>
    21a4:	fc 01       	movw	r30, r24
    21a6:	80 81       	ld	r24, Z
    21a8:	88 23       	and	r24, r24
    21aa:	39 f4       	brne	.+14     	; 0x21ba <prvResetNextTaskUnblockTime+0x2a>
    21ac:	8f ef       	ldi	r24, 0xFF	; 255
    21ae:	9f ef       	ldi	r25, 0xFF	; 255
    21b0:	90 93 01 02 	sts	0x0201, r25	; 0x800201 <__data_start+0x1>
    21b4:	80 93 00 02 	sts	0x0200, r24	; 0x800200 <__data_start>
    21b8:	15 c0       	rjmp	.+42     	; 0x21e4 <prvResetNextTaskUnblockTime+0x54>
    21ba:	80 91 1a 0c 	lds	r24, 0x0C1A	; 0x800c1a <pxDelayedTaskList>
    21be:	90 91 1b 0c 	lds	r25, 0x0C1B	; 0x800c1b <pxDelayedTaskList+0x1>
    21c2:	fc 01       	movw	r30, r24
    21c4:	85 81       	ldd	r24, Z+5	; 0x05
    21c6:	96 81       	ldd	r25, Z+6	; 0x06
    21c8:	fc 01       	movw	r30, r24
    21ca:	86 81       	ldd	r24, Z+6	; 0x06
    21cc:	97 81       	ldd	r25, Z+7	; 0x07
    21ce:	9a 83       	std	Y+2, r25	; 0x02
    21d0:	89 83       	std	Y+1, r24	; 0x01
    21d2:	89 81       	ldd	r24, Y+1	; 0x01
    21d4:	9a 81       	ldd	r25, Y+2	; 0x02
    21d6:	fc 01       	movw	r30, r24
    21d8:	82 81       	ldd	r24, Z+2	; 0x02
    21da:	93 81       	ldd	r25, Z+3	; 0x03
    21dc:	90 93 01 02 	sts	0x0201, r25	; 0x800201 <__data_start+0x1>
    21e0:	80 93 00 02 	sts	0x0200, r24	; 0x800200 <__data_start>
    21e4:	0f 90       	pop	r0
    21e6:	0f 90       	pop	r0
    21e8:	df 91       	pop	r29
    21ea:	cf 91       	pop	r28
    21ec:	08 95       	ret

000021ee <vTask1>:
int n;

/*
Reads a number from the switches and puts it onto the queue.
*/
void vTask1(void *pvParameters) {
    21ee:	cf 93       	push	r28
    21f0:	df 93       	push	r29
    21f2:	1f 92       	push	r1
    21f4:	1f 92       	push	r1
    21f6:	cd b7       	in	r28, 0x3d	; 61
    21f8:	de b7       	in	r29, 0x3e	; 62
    21fa:	9a 83       	std	Y+2, r25	; 0x02
    21fc:	89 83       	std	Y+1, r24	; 0x01
	// Remove compiler warnings.
	(void) pvParameters;

	while (1) {
		PORTB = 255;
    21fe:	85 e2       	ldi	r24, 0x25	; 37
    2200:	90 e0       	ldi	r25, 0x00	; 0
    2202:	2f ef       	ldi	r18, 0xFF	; 255
    2204:	fc 01       	movw	r30, r24
    2206:	20 83       	st	Z, r18
		// Read the switches
		n = PINA;
    2208:	80 e2       	ldi	r24, 0x20	; 32
    220a:	90 e0       	ldi	r25, 0x00	; 0
    220c:	fc 01       	movw	r30, r24
    220e:	80 81       	ld	r24, Z
    2210:	88 2f       	mov	r24, r24
    2212:	90 e0       	ldi	r25, 0x00	; 0
    2214:	90 93 44 0c 	sts	0x0C44, r25	; 0x800c44 <n+0x1>
    2218:	80 93 43 0c 	sts	0x0C43, r24	; 0x800c43 <n>

		// Did we press any button?
		if (n != 255) {
    221c:	80 91 43 0c 	lds	r24, 0x0C43	; 0x800c43 <n>
    2220:	90 91 44 0c 	lds	r25, 0x0C44	; 0x800c44 <n+0x1>
    2224:	8f 3f       	cpi	r24, 0xFF	; 255
    2226:	91 05       	cpc	r25, r1
    2228:	e9 f0       	breq	.+58     	; 0x2264 <__stack+0x65>
			while (PINA != 255); // s snart jeg ikke trykker p en knap, s gr jeg ud af while-loopet
    222a:	00 00       	nop
    222c:	80 e2       	ldi	r24, 0x20	; 32
    222e:	90 e0       	ldi	r25, 0x00	; 0
    2230:	fc 01       	movw	r30, r24
    2232:	80 81       	ld	r24, Z
    2234:	8f 3f       	cpi	r24, 0xFF	; 255
    2236:	d1 f7       	brne	.-12     	; 0x222c <__stack+0x2d>
			// Ikke trykke = 255
			if (n != 127) {
    2238:	80 91 43 0c 	lds	r24, 0x0C43	; 0x800c43 <n>
    223c:	90 91 44 0c 	lds	r25, 0x0C44	; 0x800c44 <n+0x1>
    2240:	8f 37       	cpi	r24, 0x7F	; 127
    2242:	91 05       	cpc	r25, r1
    2244:	61 f0       	breq	.+24     	; 0x225e <__stack+0x5f>
				// Put number unto queue. If queue is full, then wait forever (and block)
				xQueueSend(xQueue1, (void *)&n, portMAX_DELAY);
    2246:	80 91 3b 0c 	lds	r24, 0x0C3B	; 0x800c3b <xQueue1>
    224a:	90 91 3c 0c 	lds	r25, 0x0C3C	; 0x800c3c <xQueue1+0x1>
    224e:	20 e0       	ldi	r18, 0x00	; 0
    2250:	4f ef       	ldi	r20, 0xFF	; 255
    2252:	5f ef       	ldi	r21, 0xFF	; 255
    2254:	63 e4       	ldi	r22, 0x43	; 67
    2256:	7c e0       	ldi	r23, 0x0C	; 12
    2258:	0e 94 d2 06 	call	0xda4	; 0xda4 <xQueueGenericSend>
    225c:	03 c0       	rjmp	.+6      	; 0x2264 <__stack+0x65>
			} else {
				// Delay for 1 second
				vTaskDelay(2000);
    225e:	80 ed       	ldi	r24, 0xD0	; 208
    2260:	97 e0       	ldi	r25, 0x07	; 7
    2262:	4d da       	rcall	.-2918   	; 0x16fe <vTaskDelay>
			}
		}
	}
    2264:	cc cf       	rjmp	.-104    	; 0x21fe <vTask1+0x10>

00002266 <vTask2>:
}

/*
This task dequeus the number, and lights up a led
*/
void vTask2(void *pvParameters) {
    2266:	cf 93       	push	r28
    2268:	df 93       	push	r29
    226a:	00 d0       	rcall	.+0      	; 0x226c <vTask2+0x6>
    226c:	1f 92       	push	r1
    226e:	cd b7       	in	r28, 0x3d	; 61
    2270:	de b7       	in	r29, 0x3e	; 62
    2272:	9c 83       	std	Y+4, r25	; 0x04
    2274:	8b 83       	std	Y+3, r24	; 0x03
	// Remove compiler warnings.
	(void) pvParameters;

	uint8_t *pled = 0;
    2276:	1a 82       	std	Y+2, r1	; 0x02
    2278:	19 82       	std	Y+1, r1	; 0x01

	while (1) {
		// dequeue value. If queue is empty, then wait forever (until it becomes non-empty)
		xQueueReceive(xQueue1, &(pled), portMAX_DELAY);
    227a:	80 91 3b 0c 	lds	r24, 0x0C3B	; 0x800c3b <xQueue1>
    227e:	90 91 3c 0c 	lds	r25, 0x0C3C	; 0x800c3c <xQueue1+0x1>
    2282:	20 e0       	ldi	r18, 0x00	; 0
    2284:	4f ef       	ldi	r20, 0xFF	; 255
    2286:	5f ef       	ldi	r21, 0xFF	; 255
    2288:	be 01       	movw	r22, r28
    228a:	6f 5f       	subi	r22, 0xFF	; 255
    228c:	7f 4f       	sbci	r23, 0xFF	; 255
    228e:	0e 94 d2 07 	call	0xfa4	; 0xfa4 <xQueueGenericReceive>
		// Turn on LEDs
		PORTB = *pled;
    2292:	85 e2       	ldi	r24, 0x25	; 37
    2294:	90 e0       	ldi	r25, 0x00	; 0
    2296:	29 81       	ldd	r18, Y+1	; 0x01
    2298:	3a 81       	ldd	r19, Y+2	; 0x02
    229a:	f9 01       	movw	r30, r18
    229c:	20 81       	ld	r18, Z
    229e:	fc 01       	movw	r30, r24
    22a0:	20 83       	st	Z, r18
		vTaskDelay(250);
    22a2:	8a ef       	ldi	r24, 0xFA	; 250
    22a4:	90 e0       	ldi	r25, 0x00	; 0
    22a6:	2b da       	rcall	.-2986   	; 0x16fe <vTaskDelay>
	}
    22a8:	e8 cf       	rjmp	.-48     	; 0x227a <vTask2+0x14>

000022aa <main>:
	vTaskDelete(NULL);
}

int main(void) {
    22aa:	af 92       	push	r10
    22ac:	bf 92       	push	r11
    22ae:	cf 92       	push	r12
    22b0:	df 92       	push	r13
    22b2:	ef 92       	push	r14
    22b4:	ff 92       	push	r15
    22b6:	0f 93       	push	r16
    22b8:	cf 93       	push	r28
    22ba:	df 93       	push	r29
    22bc:	cd b7       	in	r28, 0x3d	; 61
    22be:	de b7       	in	r29, 0x3e	; 62
	// Port A (switches) is an input port
	DDRA = 0x00;
    22c0:	81 e2       	ldi	r24, 0x21	; 33
    22c2:	90 e0       	ldi	r25, 0x00	; 0
    22c4:	fc 01       	movw	r30, r24
    22c6:	10 82       	st	Z, r1
	// Port B (LEDs) is an output port
	DDRB = 0xFF;
    22c8:	84 e2       	ldi	r24, 0x24	; 36
    22ca:	90 e0       	ldi	r25, 0x00	; 0
    22cc:	2f ef       	ldi	r18, 0xFF	; 255
    22ce:	fc 01       	movw	r30, r24
    22d0:	20 83       	st	Z, r18
	// Turn off all leds
	PORTB = 0xFF;
    22d2:	85 e2       	ldi	r24, 0x25	; 37
    22d4:	90 e0       	ldi	r25, 0x00	; 0
    22d6:	2f ef       	ldi	r18, 0xFF	; 255
    22d8:	fc 01       	movw	r30, r24
    22da:	20 83       	st	Z, r18
	
	// Create the queue
	xQueue1 = xQueueCreate(20, sizeof(int));
    22dc:	40 e0       	ldi	r20, 0x00	; 0
    22de:	62 e0       	ldi	r22, 0x02	; 2
    22e0:	84 e1       	ldi	r24, 0x14	; 20
    22e2:	0e 94 6c 06 	call	0xcd8	; 0xcd8 <xQueueGenericCreate>
    22e6:	90 93 3c 0c 	sts	0x0C3C, r25	; 0x800c3c <xQueue1+0x1>
    22ea:	80 93 3b 0c 	sts	0x0C3B, r24	; 0x800c3b <xQueue1>

	xTaskCreate(vTask1, "Task 1", configMINIMAL_STACK_SIZE, task1_TASK_PRIORITY, 1, &x1Handle);
    22ee:	a1 2c       	mov	r10, r1
    22f0:	b1 2c       	mov	r11, r1
    22f2:	c1 2c       	mov	r12, r1
    22f4:	d1 2c       	mov	r13, r1
    22f6:	0f 2e       	mov	r0, r31
    22f8:	f5 e4       	ldi	r31, 0x45	; 69
    22fa:	ef 2e       	mov	r14, r31
    22fc:	fc e0       	ldi	r31, 0x0C	; 12
    22fe:	ff 2e       	mov	r15, r31
    2300:	f0 2d       	mov	r31, r0
    2302:	01 e0       	ldi	r16, 0x01	; 1
    2304:	25 e0       	ldi	r18, 0x05	; 5
    2306:	30 e0       	ldi	r19, 0x00	; 0
    2308:	49 eb       	ldi	r20, 0xB9	; 185
    230a:	50 e0       	ldi	r21, 0x00	; 0
    230c:	67 e0       	ldi	r22, 0x07	; 7
    230e:	72 e0       	ldi	r23, 0x02	; 2
    2310:	87 ef       	ldi	r24, 0xF7	; 247
    2312:	90 e1       	ldi	r25, 0x10	; 16
    2314:	12 d9       	rcall	.-3548   	; 0x153a <xTaskGenericCreate>
	xTaskCreate(vTask2, "Task 2", configMINIMAL_STACK_SIZE, task2_TASK_PRIORITY, 2, &x2Handle);
    2316:	a1 2c       	mov	r10, r1
    2318:	b1 2c       	mov	r11, r1
    231a:	c1 2c       	mov	r12, r1
    231c:	d1 2c       	mov	r13, r1
    231e:	0f 2e       	mov	r0, r31
    2320:	f7 e4       	ldi	r31, 0x47	; 71
    2322:	ef 2e       	mov	r14, r31
    2324:	fc e0       	ldi	r31, 0x0C	; 12
    2326:	ff 2e       	mov	r15, r31
    2328:	f0 2d       	mov	r31, r0
    232a:	02 e0       	ldi	r16, 0x02	; 2
    232c:	24 e0       	ldi	r18, 0x04	; 4
    232e:	30 e0       	ldi	r19, 0x00	; 0
    2330:	49 eb       	ldi	r20, 0xB9	; 185
    2332:	50 e0       	ldi	r21, 0x00	; 0
    2334:	6e e0       	ldi	r22, 0x0E	; 14
    2336:	72 e0       	ldi	r23, 0x02	; 2
    2338:	83 e3       	ldi	r24, 0x33	; 51
    233a:	91 e1       	ldi	r25, 0x11	; 17
    233c:	fe d8       	rcall	.-3588   	; 0x153a <xTaskGenericCreate>
	
	vTaskStartScheduler();
    233e:	10 da       	rcall	.-3040   	; 0x1760 <vTaskStartScheduler>

	return 0;
    2340:	80 e0       	ldi	r24, 0x00	; 0
    2342:	90 e0       	ldi	r25, 0x00	; 0
}
    2344:	df 91       	pop	r29
    2346:	cf 91       	pop	r28
    2348:	0f 91       	pop	r16
    234a:	ff 90       	pop	r15
    234c:	ef 90       	pop	r14
    234e:	df 90       	pop	r13
    2350:	cf 90       	pop	r12
    2352:	bf 90       	pop	r11
    2354:	af 90       	pop	r10
    2356:	08 95       	ret

00002358 <vApplicationIdleHook>:


/*-----------------------------------------------------------*/

void vApplicationIdleHook( void )
{
    2358:	cf 93       	push	r28
    235a:	df 93       	push	r29
    235c:	cd b7       	in	r28, 0x3d	; 61
    235e:	de b7       	in	r29, 0x3e	; 62
	//vCoRoutineSchedule();
}
    2360:	df 91       	pop	r29
    2362:	cf 91       	pop	r28
    2364:	08 95       	ret

00002366 <__vector_default>:

ISR(BADISR_vect)
{
    2366:	1f 92       	push	r1
    2368:	0f 92       	push	r0
    236a:	00 90 5f 00 	lds	r0, 0x005F	; 0x80005f <__TEXT_REGION_LENGTH__+0x70005f>
    236e:	0f 92       	push	r0
    2370:	11 24       	eor	r1, r1
    2372:	00 90 5b 00 	lds	r0, 0x005B	; 0x80005b <__TEXT_REGION_LENGTH__+0x70005b>
    2376:	0f 92       	push	r0
    2378:	2f 93       	push	r18
    237a:	3f 93       	push	r19
    237c:	8f 93       	push	r24
    237e:	9f 93       	push	r25
    2380:	ef 93       	push	r30
    2382:	ff 93       	push	r31
    2384:	cf 93       	push	r28
    2386:	df 93       	push	r29
    2388:	cd b7       	in	r28, 0x3d	; 61
    238a:	de b7       	in	r29, 0x3e	; 62
	PORTA &= ~_BV(PA1);
    238c:	82 e2       	ldi	r24, 0x22	; 34
    238e:	90 e0       	ldi	r25, 0x00	; 0
    2390:	22 e2       	ldi	r18, 0x22	; 34
    2392:	30 e0       	ldi	r19, 0x00	; 0
    2394:	f9 01       	movw	r30, r18
    2396:	20 81       	ld	r18, Z
    2398:	2d 7f       	andi	r18, 0xFD	; 253
    239a:	fc 01       	movw	r30, r24
    239c:	20 83       	st	Z, r18
}
    239e:	df 91       	pop	r29
    23a0:	cf 91       	pop	r28
    23a2:	ff 91       	pop	r31
    23a4:	ef 91       	pop	r30
    23a6:	9f 91       	pop	r25
    23a8:	8f 91       	pop	r24
    23aa:	3f 91       	pop	r19
    23ac:	2f 91       	pop	r18
    23ae:	0f 90       	pop	r0
    23b0:	00 92 5b 00 	sts	0x005B, r0	; 0x80005b <__TEXT_REGION_LENGTH__+0x70005b>
    23b4:	0f 90       	pop	r0
    23b6:	00 92 5f 00 	sts	0x005F, r0	; 0x80005f <__TEXT_REGION_LENGTH__+0x70005f>
    23ba:	0f 90       	pop	r0
    23bc:	1f 90       	pop	r1
    23be:	18 95       	reti

000023c0 <vApplicationStackOverflowHook>:

void vApplicationStackOverflowHook( TaskHandle_t xTask, char *pcTaskName ) {
    23c0:	cf 93       	push	r28
    23c2:	df 93       	push	r29
    23c4:	00 d0       	rcall	.+0      	; 0x23c6 <vApplicationStackOverflowHook+0x6>
    23c6:	1f 92       	push	r1
    23c8:	cd b7       	in	r28, 0x3d	; 61
    23ca:	de b7       	in	r29, 0x3e	; 62
    23cc:	9a 83       	std	Y+2, r25	; 0x02
    23ce:	89 83       	std	Y+1, r24	; 0x01
    23d0:	7c 83       	std	Y+4, r23	; 0x04
    23d2:	6b 83       	std	Y+3, r22	; 0x03
	PORTA |= _BV(PA7);
    23d4:	82 e2       	ldi	r24, 0x22	; 34
    23d6:	90 e0       	ldi	r25, 0x00	; 0
    23d8:	22 e2       	ldi	r18, 0x22	; 34
    23da:	30 e0       	ldi	r19, 0x00	; 0
    23dc:	f9 01       	movw	r30, r18
    23de:	20 81       	ld	r18, Z
    23e0:	20 68       	ori	r18, 0x80	; 128
    23e2:	fc 01       	movw	r30, r24
    23e4:	20 83       	st	Z, r18
    23e6:	0f 90       	pop	r0
    23e8:	0f 90       	pop	r0
    23ea:	0f 90       	pop	r0
    23ec:	0f 90       	pop	r0
    23ee:	df 91       	pop	r29
    23f0:	cf 91       	pop	r28
    23f2:	08 95       	ret

000023f4 <__vector_25>:
    23f4:	1f 92       	push	r1
    23f6:	0f 92       	push	r0
    23f8:	00 90 5f 00 	lds	r0, 0x005F	; 0x80005f <__TEXT_REGION_LENGTH__+0x70005f>
    23fc:	0f 92       	push	r0
    23fe:	11 24       	eor	r1, r1
    2400:	00 90 5b 00 	lds	r0, 0x005B	; 0x80005b <__TEXT_REGION_LENGTH__+0x70005b>
    2404:	0f 92       	push	r0
    2406:	2f 93       	push	r18
    2408:	3f 93       	push	r19
    240a:	4f 93       	push	r20
    240c:	5f 93       	push	r21
    240e:	6f 93       	push	r22
    2410:	7f 93       	push	r23
    2412:	8f 93       	push	r24
    2414:	9f 93       	push	r25
    2416:	af 93       	push	r26
    2418:	bf 93       	push	r27
    241a:	ef 93       	push	r30
    241c:	ff 93       	push	r31
    241e:	cf 93       	push	r28
    2420:	df 93       	push	r29
    2422:	1f 92       	push	r1
    2424:	1f 92       	push	r1
    2426:	cd b7       	in	r28, 0x3d	; 61
    2428:	de b7       	in	r29, 0x3e	; 62
    242a:	1a 82       	std	Y+2, r1	; 0x02
    242c:	86 ec       	ldi	r24, 0xC6	; 198
    242e:	90 e0       	ldi	r25, 0x00	; 0
    2430:	fc 01       	movw	r30, r24
    2432:	80 81       	ld	r24, Z
    2434:	89 83       	std	Y+1, r24	; 0x01
    2436:	80 91 3d 0c 	lds	r24, 0x0C3D	; 0x800c3d <xRxedChars>
    243a:	90 91 3e 0c 	lds	r25, 0x0C3E	; 0x800c3e <xRxedChars+0x1>
    243e:	ae 01       	movw	r20, r28
    2440:	4e 5f       	subi	r20, 0xFE	; 254
    2442:	5f 4f       	sbci	r21, 0xFF	; 255
    2444:	20 e0       	ldi	r18, 0x00	; 0
    2446:	be 01       	movw	r22, r28
    2448:	6f 5f       	subi	r22, 0xFF	; 255
    244a:	7f 4f       	sbci	r23, 0xFF	; 255
    244c:	0e 94 74 07 	call	0xee8	; 0xee8 <xQueueGenericSendFromISR>
    2450:	8a 81       	ldd	r24, Y+2	; 0x02
    2452:	88 23       	and	r24, r24
    2454:	11 f0       	breq	.+4      	; 0x245a <__vector_25+0x66>
    2456:	0e 94 06 04 	call	0x80c	; 0x80c <vPortYield>
    245a:	0f 90       	pop	r0
    245c:	0f 90       	pop	r0
    245e:	df 91       	pop	r29
    2460:	cf 91       	pop	r28
    2462:	ff 91       	pop	r31
    2464:	ef 91       	pop	r30
    2466:	bf 91       	pop	r27
    2468:	af 91       	pop	r26
    246a:	9f 91       	pop	r25
    246c:	8f 91       	pop	r24
    246e:	7f 91       	pop	r23
    2470:	6f 91       	pop	r22
    2472:	5f 91       	pop	r21
    2474:	4f 91       	pop	r20
    2476:	3f 91       	pop	r19
    2478:	2f 91       	pop	r18
    247a:	0f 90       	pop	r0
    247c:	00 92 5b 00 	sts	0x005B, r0	; 0x80005b <__TEXT_REGION_LENGTH__+0x70005b>
    2480:	0f 90       	pop	r0
    2482:	00 92 5f 00 	sts	0x005F, r0	; 0x80005f <__TEXT_REGION_LENGTH__+0x70005f>
    2486:	0f 90       	pop	r0
    2488:	1f 90       	pop	r1
    248a:	18 95       	reti

0000248c <__vector_26>:
    248c:	1f 92       	push	r1
    248e:	0f 92       	push	r0
    2490:	00 90 5f 00 	lds	r0, 0x005F	; 0x80005f <__TEXT_REGION_LENGTH__+0x70005f>
    2494:	0f 92       	push	r0
    2496:	11 24       	eor	r1, r1
    2498:	00 90 5b 00 	lds	r0, 0x005B	; 0x80005b <__TEXT_REGION_LENGTH__+0x70005b>
    249c:	0f 92       	push	r0
    249e:	2f 93       	push	r18
    24a0:	3f 93       	push	r19
    24a2:	4f 93       	push	r20
    24a4:	5f 93       	push	r21
    24a6:	6f 93       	push	r22
    24a8:	7f 93       	push	r23
    24aa:	8f 93       	push	r24
    24ac:	9f 93       	push	r25
    24ae:	af 93       	push	r26
    24b0:	bf 93       	push	r27
    24b2:	ef 93       	push	r30
    24b4:	ff 93       	push	r31
    24b6:	cf 93       	push	r28
    24b8:	df 93       	push	r29
    24ba:	00 d0       	rcall	.+0      	; 0x24bc <__vector_26+0x30>
    24bc:	cd b7       	in	r28, 0x3d	; 61
    24be:	de b7       	in	r29, 0x3e	; 62
    24c0:	80 91 3f 0c 	lds	r24, 0x0C3F	; 0x800c3f <xCharsForTx>
    24c4:	90 91 40 0c 	lds	r25, 0x0C40	; 0x800c40 <xCharsForTx+0x1>
    24c8:	ae 01       	movw	r20, r28
    24ca:	4d 5f       	subi	r20, 0xFD	; 253
    24cc:	5f 4f       	sbci	r21, 0xFF	; 255
    24ce:	9e 01       	movw	r18, r28
    24d0:	2e 5f       	subi	r18, 0xFE	; 254
    24d2:	3f 4f       	sbci	r19, 0xFF	; 255
    24d4:	b9 01       	movw	r22, r18
    24d6:	0e 94 90 08 	call	0x1120	; 0x1120 <xQueueReceiveFromISR>
    24da:	81 30       	cpi	r24, 0x01	; 1
    24dc:	31 f4       	brne	.+12     	; 0x24ea <__vector_26+0x5e>
    24de:	86 ec       	ldi	r24, 0xC6	; 198
    24e0:	90 e0       	ldi	r25, 0x00	; 0
    24e2:	2a 81       	ldd	r18, Y+2	; 0x02
    24e4:	fc 01       	movw	r30, r24
    24e6:	20 83       	st	Z, r18
    24e8:	0d c0       	rjmp	.+26     	; 0x2504 <__vector_26+0x78>
    24ea:	81 ec       	ldi	r24, 0xC1	; 193
    24ec:	90 e0       	ldi	r25, 0x00	; 0
    24ee:	fc 01       	movw	r30, r24
    24f0:	80 81       	ld	r24, Z
    24f2:	89 83       	std	Y+1, r24	; 0x01
    24f4:	89 81       	ldd	r24, Y+1	; 0x01
    24f6:	8f 7d       	andi	r24, 0xDF	; 223
    24f8:	89 83       	std	Y+1, r24	; 0x01
    24fa:	81 ec       	ldi	r24, 0xC1	; 193
    24fc:	90 e0       	ldi	r25, 0x00	; 0
    24fe:	29 81       	ldd	r18, Y+1	; 0x01
    2500:	fc 01       	movw	r30, r24
    2502:	20 83       	st	Z, r18
    2504:	0f 90       	pop	r0
    2506:	0f 90       	pop	r0
    2508:	0f 90       	pop	r0
    250a:	df 91       	pop	r29
    250c:	cf 91       	pop	r28
    250e:	ff 91       	pop	r31
    2510:	ef 91       	pop	r30
    2512:	bf 91       	pop	r27
    2514:	af 91       	pop	r26
    2516:	9f 91       	pop	r25
    2518:	8f 91       	pop	r24
    251a:	7f 91       	pop	r23
    251c:	6f 91       	pop	r22
    251e:	5f 91       	pop	r21
    2520:	4f 91       	pop	r20
    2522:	3f 91       	pop	r19
    2524:	2f 91       	pop	r18
    2526:	0f 90       	pop	r0
    2528:	00 92 5b 00 	sts	0x005B, r0	; 0x80005b <__TEXT_REGION_LENGTH__+0x70005b>
    252c:	0f 90       	pop	r0
    252e:	00 92 5f 00 	sts	0x005F, r0	; 0x80005f <__TEXT_REGION_LENGTH__+0x70005f>
    2532:	0f 90       	pop	r0
    2534:	1f 90       	pop	r1
    2536:	18 95       	reti

00002538 <__udivmodsi4>:
    2538:	a1 e2       	ldi	r26, 0x21	; 33
    253a:	1a 2e       	mov	r1, r26
    253c:	aa 1b       	sub	r26, r26
    253e:	bb 1b       	sub	r27, r27
    2540:	fd 01       	movw	r30, r26
    2542:	0d c0       	rjmp	.+26     	; 0x255e <__udivmodsi4_ep>

00002544 <__udivmodsi4_loop>:
    2544:	aa 1f       	adc	r26, r26
    2546:	bb 1f       	adc	r27, r27
    2548:	ee 1f       	adc	r30, r30
    254a:	ff 1f       	adc	r31, r31
    254c:	a2 17       	cp	r26, r18
    254e:	b3 07       	cpc	r27, r19
    2550:	e4 07       	cpc	r30, r20
    2552:	f5 07       	cpc	r31, r21
    2554:	20 f0       	brcs	.+8      	; 0x255e <__udivmodsi4_ep>
    2556:	a2 1b       	sub	r26, r18
    2558:	b3 0b       	sbc	r27, r19
    255a:	e4 0b       	sbc	r30, r20
    255c:	f5 0b       	sbc	r31, r21

0000255e <__udivmodsi4_ep>:
    255e:	66 1f       	adc	r22, r22
    2560:	77 1f       	adc	r23, r23
    2562:	88 1f       	adc	r24, r24
    2564:	99 1f       	adc	r25, r25
    2566:	1a 94       	dec	r1
    2568:	69 f7       	brne	.-38     	; 0x2544 <__udivmodsi4_loop>
    256a:	60 95       	com	r22
    256c:	70 95       	com	r23
    256e:	80 95       	com	r24
    2570:	90 95       	com	r25
    2572:	9b 01       	movw	r18, r22
    2574:	ac 01       	movw	r20, r24
    2576:	bd 01       	movw	r22, r26
    2578:	cf 01       	movw	r24, r30
    257a:	08 95       	ret

0000257c <memcpy>:
    257c:	fb 01       	movw	r30, r22
    257e:	dc 01       	movw	r26, r24
    2580:	02 c0       	rjmp	.+4      	; 0x2586 <memcpy+0xa>
    2582:	01 90       	ld	r0, Z+
    2584:	0d 92       	st	X+, r0
    2586:	41 50       	subi	r20, 0x01	; 1
    2588:	50 40       	sbci	r21, 0x00	; 0
    258a:	d8 f7       	brcc	.-10     	; 0x2582 <memcpy+0x6>
    258c:	08 95       	ret

0000258e <_exit>:
    258e:	f8 94       	cli

00002590 <__stop_program>:
    2590:	ff cf       	rjmp	.-2      	; 0x2590 <__stop_program>
